ARM GAS  C:\Users\gding\AppData\Local\Temp\ccWlITBc.s 			page 1


   1              		.syntax unified
   2              		.cpu cortex-m3
   3              		.fpu softvfp
   4              		.eabi_attribute 20, 1
   5              		.eabi_attribute 21, 1
   6              		.eabi_attribute 23, 3
   7              		.eabi_attribute 24, 1
   8              		.eabi_attribute 25, 1
   9              		.eabi_attribute 26, 1
  10              		.eabi_attribute 30, 6
  11              		.eabi_attribute 34, 1
  12              		.eabi_attribute 18, 4
  13              		.thumb
  14              		.file	"cyfitter_cfg.c"
  15              		.text
  16              	.Ltext0:
  17              		.cfi_sections	.debug_frame
  18              		.section	.text.CYMEMZERO,"ax",%progbits
  19              		.align	2
  20              		.thumb
  21              		.thumb_func
  22              		.type	CYMEMZERO, %function
  23              	CYMEMZERO:
  24              	.LFB0:
  25              		.file 1 "Generated_Source\\PSoC5\\cyfitter_cfg.c"
   1:Generated_Source\PSoC5/cyfitter_cfg.c **** /*******************************************************************************
   2:Generated_Source\PSoC5/cyfitter_cfg.c **** * File Name: cyfitter_cfg.c
   3:Generated_Source\PSoC5/cyfitter_cfg.c **** * 
   4:Generated_Source\PSoC5/cyfitter_cfg.c **** * PSoC Creator  4.0 Update 1
   5:Generated_Source\PSoC5/cyfitter_cfg.c **** *
   6:Generated_Source\PSoC5/cyfitter_cfg.c **** * Description:
   7:Generated_Source\PSoC5/cyfitter_cfg.c **** * This file contains device initialization code.
   8:Generated_Source\PSoC5/cyfitter_cfg.c **** * Except for the user defined sections in CyClockStartupError(), this file should not be modified.
   9:Generated_Source\PSoC5/cyfitter_cfg.c **** * This file is automatically generated by PSoC Creator.
  10:Generated_Source\PSoC5/cyfitter_cfg.c **** *
  11:Generated_Source\PSoC5/cyfitter_cfg.c **** ********************************************************************************
  12:Generated_Source\PSoC5/cyfitter_cfg.c **** * Copyright (c) 2007-2016 Cypress Semiconductor.  All rights reserved.
  13:Generated_Source\PSoC5/cyfitter_cfg.c **** * You may use this file only in accordance with the license, terms, conditions, 
  14:Generated_Source\PSoC5/cyfitter_cfg.c **** * disclaimers, and limitations in the end user license agreement accompanying 
  15:Generated_Source\PSoC5/cyfitter_cfg.c **** * the software package with which this file was provided.
  16:Generated_Source\PSoC5/cyfitter_cfg.c **** ********************************************************************************/
  17:Generated_Source\PSoC5/cyfitter_cfg.c **** 
  18:Generated_Source\PSoC5/cyfitter_cfg.c **** #include <string.h>
  19:Generated_Source\PSoC5/cyfitter_cfg.c **** #include "cytypes.h"
  20:Generated_Source\PSoC5/cyfitter_cfg.c **** #include "cydevice_trm.h"
  21:Generated_Source\PSoC5/cyfitter_cfg.c **** #include "cyfitter.h"
  22:Generated_Source\PSoC5/cyfitter_cfg.c **** #include "CyLib.h"
  23:Generated_Source\PSoC5/cyfitter_cfg.c **** #include "cyfitter_cfg.h"
  24:Generated_Source\PSoC5/cyfitter_cfg.c **** #include "cyapicallbacks.h"
  25:Generated_Source\PSoC5/cyfitter_cfg.c **** 
  26:Generated_Source\PSoC5/cyfitter_cfg.c **** #define CY_NEED_CYCLOCKSTARTUPERROR 1
  27:Generated_Source\PSoC5/cyfitter_cfg.c **** 
  28:Generated_Source\PSoC5/cyfitter_cfg.c **** 
  29:Generated_Source\PSoC5/cyfitter_cfg.c **** #if defined(__GNUC__) || defined(__ARMCC_VERSION)
  30:Generated_Source\PSoC5/cyfitter_cfg.c ****     #define CYPACKED 
  31:Generated_Source\PSoC5/cyfitter_cfg.c ****     #define CYPACKED_ATTR __attribute__ ((packed))
  32:Generated_Source\PSoC5/cyfitter_cfg.c ****     #define CYALIGNED __attribute__ ((aligned))
ARM GAS  C:\Users\gding\AppData\Local\Temp\ccWlITBc.s 			page 2


  33:Generated_Source\PSoC5/cyfitter_cfg.c ****     #define CY_CFG_UNUSED __attribute__ ((unused))
  34:Generated_Source\PSoC5/cyfitter_cfg.c ****     #ifndef CY_CFG_SECTION
  35:Generated_Source\PSoC5/cyfitter_cfg.c ****         #define CY_CFG_SECTION __attribute__ ((section(".psocinit")))
  36:Generated_Source\PSoC5/cyfitter_cfg.c ****     #endif
  37:Generated_Source\PSoC5/cyfitter_cfg.c ****     
  38:Generated_Source\PSoC5/cyfitter_cfg.c ****     #if defined(__ARMCC_VERSION)
  39:Generated_Source\PSoC5/cyfitter_cfg.c ****         #define CY_CFG_MEMORY_BARRIER() __memory_changed()
  40:Generated_Source\PSoC5/cyfitter_cfg.c ****     #else
  41:Generated_Source\PSoC5/cyfitter_cfg.c ****         #define CY_CFG_MEMORY_BARRIER() __sync_synchronize()
  42:Generated_Source\PSoC5/cyfitter_cfg.c ****     #endif
  43:Generated_Source\PSoC5/cyfitter_cfg.c ****     
  44:Generated_Source\PSoC5/cyfitter_cfg.c **** #elif defined(__ICCARM__)
  45:Generated_Source\PSoC5/cyfitter_cfg.c ****     #include <intrinsics.h>
  46:Generated_Source\PSoC5/cyfitter_cfg.c **** 
  47:Generated_Source\PSoC5/cyfitter_cfg.c ****     #define CYPACKED __packed
  48:Generated_Source\PSoC5/cyfitter_cfg.c ****     #define CYPACKED_ATTR 
  49:Generated_Source\PSoC5/cyfitter_cfg.c ****     #define CYALIGNED _Pragma("data_alignment=4")
  50:Generated_Source\PSoC5/cyfitter_cfg.c ****     #define CY_CFG_UNUSED _Pragma("diag_suppress=Pe177")
  51:Generated_Source\PSoC5/cyfitter_cfg.c ****     #define CY_CFG_SECTION _Pragma("location=\".psocinit\"")
  52:Generated_Source\PSoC5/cyfitter_cfg.c ****     
  53:Generated_Source\PSoC5/cyfitter_cfg.c ****     #define CY_CFG_MEMORY_BARRIER() __DMB()
  54:Generated_Source\PSoC5/cyfitter_cfg.c ****     
  55:Generated_Source\PSoC5/cyfitter_cfg.c **** #else
  56:Generated_Source\PSoC5/cyfitter_cfg.c ****     #error Unsupported toolchain
  57:Generated_Source\PSoC5/cyfitter_cfg.c **** #endif
  58:Generated_Source\PSoC5/cyfitter_cfg.c **** 
  59:Generated_Source\PSoC5/cyfitter_cfg.c **** 
  60:Generated_Source\PSoC5/cyfitter_cfg.c **** CY_CFG_UNUSED
  61:Generated_Source\PSoC5/cyfitter_cfg.c **** static void CYMEMZERO(void *s, size_t n);
  62:Generated_Source\PSoC5/cyfitter_cfg.c **** CY_CFG_UNUSED
  63:Generated_Source\PSoC5/cyfitter_cfg.c **** static void CYMEMZERO(void *s, size_t n)
  64:Generated_Source\PSoC5/cyfitter_cfg.c **** {
  26              		.loc 1 64 0
  27              		.cfi_startproc
  28              		@ args = 0, pretend = 0, frame = 8
  29              		@ frame_needed = 1, uses_anonymous_args = 0
  30 0000 80B5     		push	{r7, lr}
  31              		.cfi_def_cfa_offset 8
  32              		.cfi_offset 7, -8
  33              		.cfi_offset 14, -4
  34 0002 82B0     		sub	sp, sp, #8
  35              		.cfi_def_cfa_offset 16
  36 0004 00AF     		add	r7, sp, #0
  37              		.cfi_def_cfa_register 7
  38 0006 7860     		str	r0, [r7, #4]
  39 0008 3960     		str	r1, [r7]
  65:Generated_Source\PSoC5/cyfitter_cfg.c **** 	(void)memset(s, 0, n);
  40              		.loc 1 65 0
  41 000a 7868     		ldr	r0, [r7, #4]
  42 000c 0021     		movs	r1, #0
  43 000e 3A68     		ldr	r2, [r7]
  44 0010 FFF7FEFF 		bl	memset
  66:Generated_Source\PSoC5/cyfitter_cfg.c **** }
  45              		.loc 1 66 0
  46 0014 0837     		adds	r7, r7, #8
  47              		.cfi_def_cfa_offset 8
  48 0016 BD46     		mov	sp, r7
ARM GAS  C:\Users\gding\AppData\Local\Temp\ccWlITBc.s 			page 3


  49              		.cfi_def_cfa_register 13
  50              		@ sp needed
  51 0018 80BD     		pop	{r7, pc}
  52              		.cfi_endproc
  53              	.LFE0:
  54              		.size	CYMEMZERO, .-CYMEMZERO
  55 001a 00BF     		.section	.text.CYCONFIGCPY,"ax",%progbits
  56              		.align	2
  57              		.thumb
  58              		.thumb_func
  59              		.type	CYCONFIGCPY, %function
  60              	CYCONFIGCPY:
  61              	.LFB1:
  67:Generated_Source\PSoC5/cyfitter_cfg.c **** CY_CFG_UNUSED
  68:Generated_Source\PSoC5/cyfitter_cfg.c **** static void CYCONFIGCPY(void *dest, const void *src, size_t n);
  69:Generated_Source\PSoC5/cyfitter_cfg.c **** CY_CFG_UNUSED
  70:Generated_Source\PSoC5/cyfitter_cfg.c **** static void CYCONFIGCPY(void *dest, const void *src, size_t n)
  71:Generated_Source\PSoC5/cyfitter_cfg.c **** {
  62              		.loc 1 71 0
  63              		.cfi_startproc
  64              		@ args = 0, pretend = 0, frame = 16
  65              		@ frame_needed = 1, uses_anonymous_args = 0
  66 0000 80B5     		push	{r7, lr}
  67              		.cfi_def_cfa_offset 8
  68              		.cfi_offset 7, -8
  69              		.cfi_offset 14, -4
  70 0002 84B0     		sub	sp, sp, #16
  71              		.cfi_def_cfa_offset 24
  72 0004 00AF     		add	r7, sp, #0
  73              		.cfi_def_cfa_register 7
  74 0006 F860     		str	r0, [r7, #12]
  75 0008 B960     		str	r1, [r7, #8]
  76 000a 7A60     		str	r2, [r7, #4]
  72:Generated_Source\PSoC5/cyfitter_cfg.c **** 	(void)memcpy(dest, src, n);
  77              		.loc 1 72 0
  78 000c F868     		ldr	r0, [r7, #12]
  79 000e B968     		ldr	r1, [r7, #8]
  80 0010 7A68     		ldr	r2, [r7, #4]
  81 0012 FFF7FEFF 		bl	memcpy
  73:Generated_Source\PSoC5/cyfitter_cfg.c **** }
  82              		.loc 1 73 0
  83 0016 1037     		adds	r7, r7, #16
  84              		.cfi_def_cfa_offset 8
  85 0018 BD46     		mov	sp, r7
  86              		.cfi_def_cfa_register 13
  87              		@ sp needed
  88 001a 80BD     		pop	{r7, pc}
  89              		.cfi_endproc
  90              	.LFE1:
  91              		.size	CYCONFIGCPY, .-CYCONFIGCPY
  92              		.section	.text.CYCONFIGCPYCODE,"ax",%progbits
  93              		.align	2
  94              		.thumb
  95              		.thumb_func
  96              		.type	CYCONFIGCPYCODE, %function
  97              	CYCONFIGCPYCODE:
  98              	.LFB2:
ARM GAS  C:\Users\gding\AppData\Local\Temp\ccWlITBc.s 			page 4


  74:Generated_Source\PSoC5/cyfitter_cfg.c **** CY_CFG_UNUSED
  75:Generated_Source\PSoC5/cyfitter_cfg.c **** static void CYCONFIGCPYCODE(void *dest, const void *src, size_t n);
  76:Generated_Source\PSoC5/cyfitter_cfg.c **** CY_CFG_UNUSED
  77:Generated_Source\PSoC5/cyfitter_cfg.c **** static void CYCONFIGCPYCODE(void *dest, const void *src, size_t n)
  78:Generated_Source\PSoC5/cyfitter_cfg.c **** {
  99              		.loc 1 78 0
 100              		.cfi_startproc
 101              		@ args = 0, pretend = 0, frame = 16
 102              		@ frame_needed = 1, uses_anonymous_args = 0
 103 0000 80B5     		push	{r7, lr}
 104              		.cfi_def_cfa_offset 8
 105              		.cfi_offset 7, -8
 106              		.cfi_offset 14, -4
 107 0002 84B0     		sub	sp, sp, #16
 108              		.cfi_def_cfa_offset 24
 109 0004 00AF     		add	r7, sp, #0
 110              		.cfi_def_cfa_register 7
 111 0006 F860     		str	r0, [r7, #12]
 112 0008 B960     		str	r1, [r7, #8]
 113 000a 7A60     		str	r2, [r7, #4]
  79:Generated_Source\PSoC5/cyfitter_cfg.c **** 	(void)memcpy(dest, src, n);
 114              		.loc 1 79 0
 115 000c F868     		ldr	r0, [r7, #12]
 116 000e B968     		ldr	r1, [r7, #8]
 117 0010 7A68     		ldr	r2, [r7, #4]
 118 0012 FFF7FEFF 		bl	memcpy
  80:Generated_Source\PSoC5/cyfitter_cfg.c **** }
 119              		.loc 1 80 0
 120 0016 1037     		adds	r7, r7, #16
 121              		.cfi_def_cfa_offset 8
 122 0018 BD46     		mov	sp, r7
 123              		.cfi_def_cfa_register 13
 124              		@ sp needed
 125 001a 80BD     		pop	{r7, pc}
 126              		.cfi_endproc
 127              	.LFE2:
 128              		.size	CYCONFIGCPYCODE, .-CYCONFIGCPYCODE
 129              		.section	.text.CyClockStartupError,"ax",%progbits
 130              		.align	2
 131              		.thumb
 132              		.thumb_func
 133              		.type	CyClockStartupError, %function
 134              	CyClockStartupError:
 135              	.LFB3:
  81:Generated_Source\PSoC5/cyfitter_cfg.c **** 
  82:Generated_Source\PSoC5/cyfitter_cfg.c **** 
  83:Generated_Source\PSoC5/cyfitter_cfg.c **** 
  84:Generated_Source\PSoC5/cyfitter_cfg.c **** 
  85:Generated_Source\PSoC5/cyfitter_cfg.c **** /* Clock startup error codes                                                   */
  86:Generated_Source\PSoC5/cyfitter_cfg.c **** #define CYCLOCKSTART_NO_ERROR    0u
  87:Generated_Source\PSoC5/cyfitter_cfg.c **** #define CYCLOCKSTART_XTAL_ERROR  1u
  88:Generated_Source\PSoC5/cyfitter_cfg.c **** #define CYCLOCKSTART_32KHZ_ERROR 2u
  89:Generated_Source\PSoC5/cyfitter_cfg.c **** #define CYCLOCKSTART_PLL_ERROR   3u
  90:Generated_Source\PSoC5/cyfitter_cfg.c **** 
  91:Generated_Source\PSoC5/cyfitter_cfg.c **** 
  92:Generated_Source\PSoC5/cyfitter_cfg.c **** #ifdef CY_NEED_CYCLOCKSTARTUPERROR
  93:Generated_Source\PSoC5/cyfitter_cfg.c **** /*******************************************************************************
ARM GAS  C:\Users\gding\AppData\Local\Temp\ccWlITBc.s 			page 5


  94:Generated_Source\PSoC5/cyfitter_cfg.c **** * Function Name: CyClockStartupError
  95:Generated_Source\PSoC5/cyfitter_cfg.c **** ********************************************************************************
  96:Generated_Source\PSoC5/cyfitter_cfg.c **** * Summary:
  97:Generated_Source\PSoC5/cyfitter_cfg.c **** *  If an error is encountered during clock configuration (crystal startup error,
  98:Generated_Source\PSoC5/cyfitter_cfg.c **** *  PLL lock error, etc.), the system will end up here.  Unless reimplemented by
  99:Generated_Source\PSoC5/cyfitter_cfg.c **** *  the customer, this function will stop in an infinite loop.
 100:Generated_Source\PSoC5/cyfitter_cfg.c **** *
 101:Generated_Source\PSoC5/cyfitter_cfg.c **** * Parameters:
 102:Generated_Source\PSoC5/cyfitter_cfg.c **** *   void
 103:Generated_Source\PSoC5/cyfitter_cfg.c **** *
 104:Generated_Source\PSoC5/cyfitter_cfg.c **** * Return:
 105:Generated_Source\PSoC5/cyfitter_cfg.c **** *   void
 106:Generated_Source\PSoC5/cyfitter_cfg.c **** *
 107:Generated_Source\PSoC5/cyfitter_cfg.c **** *******************************************************************************/
 108:Generated_Source\PSoC5/cyfitter_cfg.c **** CY_CFG_UNUSED
 109:Generated_Source\PSoC5/cyfitter_cfg.c **** static void CyClockStartupError(uint8 errorCode);
 110:Generated_Source\PSoC5/cyfitter_cfg.c **** CY_CFG_UNUSED
 111:Generated_Source\PSoC5/cyfitter_cfg.c **** static void CyClockStartupError(uint8 errorCode)
 112:Generated_Source\PSoC5/cyfitter_cfg.c **** {
 136              		.loc 1 112 0
 137              		.cfi_startproc
 138              		@ args = 0, pretend = 0, frame = 8
 139              		@ frame_needed = 1, uses_anonymous_args = 0
 140              		@ link register save eliminated.
 141 0000 80B4     		push	{r7}
 142              		.cfi_def_cfa_offset 4
 143              		.cfi_offset 7, -4
 144 0002 83B0     		sub	sp, sp, #12
 145              		.cfi_def_cfa_offset 16
 146 0004 00AF     		add	r7, sp, #0
 147              		.cfi_def_cfa_register 7
 148 0006 0346     		mov	r3, r0
 149 0008 FB71     		strb	r3, [r7, #7]
 150              	.L5:
 113:Generated_Source\PSoC5/cyfitter_cfg.c ****     /* To remove the compiler warning if errorCode not used.                */
 114:Generated_Source\PSoC5/cyfitter_cfg.c ****     errorCode = errorCode;
 115:Generated_Source\PSoC5/cyfitter_cfg.c **** 
 116:Generated_Source\PSoC5/cyfitter_cfg.c ****     /* If we have a clock startup error (bad MHz crystal, PLL lock, etc.),  */
 117:Generated_Source\PSoC5/cyfitter_cfg.c ****     /* we will end up here to allow the customer to implement something to  */
 118:Generated_Source\PSoC5/cyfitter_cfg.c ****     /* deal with the clock condition.                                       */
 119:Generated_Source\PSoC5/cyfitter_cfg.c **** 
 120:Generated_Source\PSoC5/cyfitter_cfg.c **** #ifdef CY_CFG_CLOCK_STARTUP_ERROR_CALLBACK
 121:Generated_Source\PSoC5/cyfitter_cfg.c **** 	CY_CFG_Clock_Startup_ErrorCallback();
 122:Generated_Source\PSoC5/cyfitter_cfg.c **** #else
 123:Generated_Source\PSoC5/cyfitter_cfg.c **** 	/*  If not using CY_CFG_CLOCK_STARTUP_ERROR_CALLBACK, place your clock startup code here. */
 124:Generated_Source\PSoC5/cyfitter_cfg.c ****     /* `#START CyClockStartupError` */
 125:Generated_Source\PSoC5/cyfitter_cfg.c **** 
 126:Generated_Source\PSoC5/cyfitter_cfg.c **** 
 127:Generated_Source\PSoC5/cyfitter_cfg.c **** 
 128:Generated_Source\PSoC5/cyfitter_cfg.c ****     /* `#END` */
 129:Generated_Source\PSoC5/cyfitter_cfg.c **** 
 130:Generated_Source\PSoC5/cyfitter_cfg.c ****     /* If nothing else, stop here since the clocks have not started         */
 131:Generated_Source\PSoC5/cyfitter_cfg.c ****     /* correctly.                                                           */
 132:Generated_Source\PSoC5/cyfitter_cfg.c ****     while(1) {}
 151              		.loc 1 132 0 discriminator 1
 152 000a FEE7     		b	.L5
 153              		.cfi_endproc
ARM GAS  C:\Users\gding\AppData\Local\Temp\ccWlITBc.s 			page 6


 154              	.LFE3:
 155              		.size	CyClockStartupError, .-CyClockStartupError
 156              		.section	.text.cfg_write_bytes32,"ax",%progbits
 157              		.align	2
 158              		.thumb
 159              		.thumb_func
 160              		.type	cfg_write_bytes32, %function
 161              	cfg_write_bytes32:
 162              	.LFB4:
 133:Generated_Source\PSoC5/cyfitter_cfg.c **** #endif /* CY_CFG_CLOCK_STARTUP_ERROR_CALLBACK */ 
 134:Generated_Source\PSoC5/cyfitter_cfg.c **** }
 135:Generated_Source\PSoC5/cyfitter_cfg.c **** #endif
 136:Generated_Source\PSoC5/cyfitter_cfg.c **** 
 137:Generated_Source\PSoC5/cyfitter_cfg.c **** #define CY_CFG_BASE_ADDR_COUNT 19u
 138:Generated_Source\PSoC5/cyfitter_cfg.c **** CYPACKED typedef struct
 139:Generated_Source\PSoC5/cyfitter_cfg.c **** {
 140:Generated_Source\PSoC5/cyfitter_cfg.c **** 	uint8 offset;
 141:Generated_Source\PSoC5/cyfitter_cfg.c **** 	uint8 value;
 142:Generated_Source\PSoC5/cyfitter_cfg.c **** } CYPACKED_ATTR cy_cfg_addrvalue_t;
 143:Generated_Source\PSoC5/cyfitter_cfg.c **** 
 144:Generated_Source\PSoC5/cyfitter_cfg.c **** #define cy_cfg_addr_table ((const uint32 CYFAR *)0x48000000u)
 145:Generated_Source\PSoC5/cyfitter_cfg.c **** #define cy_cfg_data_table ((const cy_cfg_addrvalue_t CYFAR *)0x4800004Cu)
 146:Generated_Source\PSoC5/cyfitter_cfg.c **** 
 147:Generated_Source\PSoC5/cyfitter_cfg.c **** /* IOPINS0_1 Address: CYREG_PRT1_DR Size (bytes): 10 */
 148:Generated_Source\PSoC5/cyfitter_cfg.c **** #define BS_IOPINS0_1_VAL ((const uint8 CYFAR *)0x480000C4u)
 149:Generated_Source\PSoC5/cyfitter_cfg.c **** 
 150:Generated_Source\PSoC5/cyfitter_cfg.c **** /* IOPINS0_2 Address: CYREG_PRT2_DM0 Size (bytes): 8 */
 151:Generated_Source\PSoC5/cyfitter_cfg.c **** #define BS_IOPINS0_2_VAL ((const uint8 CYFAR *)0x480000D0u)
 152:Generated_Source\PSoC5/cyfitter_cfg.c **** 
 153:Generated_Source\PSoC5/cyfitter_cfg.c **** /* IOPINS0_3 Address: CYREG_PRT3_DM0 Size (bytes): 8 */
 154:Generated_Source\PSoC5/cyfitter_cfg.c **** #define BS_IOPINS0_3_VAL ((const uint8 CYFAR *)0x480000D8u)
 155:Generated_Source\PSoC5/cyfitter_cfg.c **** 
 156:Generated_Source\PSoC5/cyfitter_cfg.c **** /* CYDEV_CLKDIST_ACFG0_CFG0 Address: CYREG_CLKDIST_ACFG0_CFG0 Size (bytes): 4 */
 157:Generated_Source\PSoC5/cyfitter_cfg.c **** #define BS_CYDEV_CLKDIST_ACFG0_CFG0_VAL ((const uint8 CYFAR *)0x480000E0u)
 158:Generated_Source\PSoC5/cyfitter_cfg.c **** 
 159:Generated_Source\PSoC5/cyfitter_cfg.c **** 
 160:Generated_Source\PSoC5/cyfitter_cfg.c **** /*******************************************************************************
 161:Generated_Source\PSoC5/cyfitter_cfg.c **** * Function Name: cfg_write_bytes32
 162:Generated_Source\PSoC5/cyfitter_cfg.c **** ********************************************************************************
 163:Generated_Source\PSoC5/cyfitter_cfg.c **** * Summary:
 164:Generated_Source\PSoC5/cyfitter_cfg.c **** *  This function is used for setting up the chip configuration areas that
 165:Generated_Source\PSoC5/cyfitter_cfg.c **** *  contain relatively sparse data.
 166:Generated_Source\PSoC5/cyfitter_cfg.c **** *
 167:Generated_Source\PSoC5/cyfitter_cfg.c **** * Parameters:
 168:Generated_Source\PSoC5/cyfitter_cfg.c **** *   void
 169:Generated_Source\PSoC5/cyfitter_cfg.c **** *
 170:Generated_Source\PSoC5/cyfitter_cfg.c **** * Return:
 171:Generated_Source\PSoC5/cyfitter_cfg.c **** *   void
 172:Generated_Source\PSoC5/cyfitter_cfg.c **** *
 173:Generated_Source\PSoC5/cyfitter_cfg.c **** *******************************************************************************/
 174:Generated_Source\PSoC5/cyfitter_cfg.c **** static void cfg_write_bytes32(const uint32 addr_table[], const cy_cfg_addrvalue_t data_table[]);
 175:Generated_Source\PSoC5/cyfitter_cfg.c **** static void cfg_write_bytes32(const uint32 addr_table[], const cy_cfg_addrvalue_t data_table[])
 176:Generated_Source\PSoC5/cyfitter_cfg.c **** {
 163              		.loc 1 176 0
 164              		.cfi_startproc
 165              		@ args = 0, pretend = 0, frame = 24
 166              		@ frame_needed = 1, uses_anonymous_args = 0
ARM GAS  C:\Users\gding\AppData\Local\Temp\ccWlITBc.s 			page 7


 167              		@ link register save eliminated.
 168 0000 80B4     		push	{r7}
 169              		.cfi_def_cfa_offset 4
 170              		.cfi_offset 7, -4
 171 0002 87B0     		sub	sp, sp, #28
 172              		.cfi_def_cfa_offset 32
 173 0004 00AF     		add	r7, sp, #0
 174              		.cfi_def_cfa_register 7
 175 0006 7860     		str	r0, [r7, #4]
 176 0008 3960     		str	r1, [r7]
 177:Generated_Source\PSoC5/cyfitter_cfg.c **** 	/* For 32-bit little-endian architectures */
 178:Generated_Source\PSoC5/cyfitter_cfg.c **** 	uint32 i, j = 0u;
 177              		.loc 1 178 0
 178 000a 0023     		movs	r3, #0
 179 000c 3B61     		str	r3, [r7, #16]
 179:Generated_Source\PSoC5/cyfitter_cfg.c **** 	for (i = 0u; i < CY_CFG_BASE_ADDR_COUNT; i++)
 180              		.loc 1 179 0
 181 000e 0023     		movs	r3, #0
 182 0010 7B61     		str	r3, [r7, #20]
 183 0012 27E0     		b	.L7
 184              	.L10:
 185              	.LBB2:
 180:Generated_Source\PSoC5/cyfitter_cfg.c **** 	{
 181:Generated_Source\PSoC5/cyfitter_cfg.c **** 		uint32 baseAddr = addr_table[i];
 186              		.loc 1 181 0
 187 0014 7B69     		ldr	r3, [r7, #20]
 188 0016 9B00     		lsls	r3, r3, #2
 189 0018 7A68     		ldr	r2, [r7, #4]
 190 001a 1344     		add	r3, r3, r2
 191 001c 1B68     		ldr	r3, [r3]
 192 001e BB60     		str	r3, [r7, #8]
 182:Generated_Source\PSoC5/cyfitter_cfg.c **** 		uint8 count = (uint8)baseAddr;
 193              		.loc 1 182 0
 194 0020 BB68     		ldr	r3, [r7, #8]
 195 0022 FB73     		strb	r3, [r7, #15]
 183:Generated_Source\PSoC5/cyfitter_cfg.c **** 		baseAddr &= 0xFFFFFF00u;
 196              		.loc 1 183 0
 197 0024 BB68     		ldr	r3, [r7, #8]
 198 0026 23F0FF03 		bic	r3, r3, #255
 199 002a BB60     		str	r3, [r7, #8]
 184:Generated_Source\PSoC5/cyfitter_cfg.c **** 		while (count != 0u)
 200              		.loc 1 184 0
 201 002c 14E0     		b	.L8
 202              	.L9:
 185:Generated_Source\PSoC5/cyfitter_cfg.c **** 		{
 186:Generated_Source\PSoC5/cyfitter_cfg.c **** 			CY_SET_XTND_REG8((void CYFAR *)(baseAddr + data_table[j].offset), data_table[j].value);
 203              		.loc 1 186 0
 204 002e 3B69     		ldr	r3, [r7, #16]
 205 0030 5B00     		lsls	r3, r3, #1
 206 0032 3A68     		ldr	r2, [r7]
 207 0034 1344     		add	r3, r3, r2
 208 0036 1B78     		ldrb	r3, [r3]	@ zero_extendqisi2
 209 0038 1A46     		mov	r2, r3
 210 003a BB68     		ldr	r3, [r7, #8]
 211 003c 1344     		add	r3, r3, r2
 212 003e 1946     		mov	r1, r3
 213 0040 3B69     		ldr	r3, [r7, #16]
ARM GAS  C:\Users\gding\AppData\Local\Temp\ccWlITBc.s 			page 8


 214 0042 5B00     		lsls	r3, r3, #1
 215 0044 3A68     		ldr	r2, [r7]
 216 0046 1344     		add	r3, r3, r2
 217 0048 5B78     		ldrb	r3, [r3, #1]	@ zero_extendqisi2
 218 004a 0B70     		strb	r3, [r1]
 187:Generated_Source\PSoC5/cyfitter_cfg.c **** 			j++;
 219              		.loc 1 187 0
 220 004c 3B69     		ldr	r3, [r7, #16]
 221 004e 0133     		adds	r3, r3, #1
 222 0050 3B61     		str	r3, [r7, #16]
 188:Generated_Source\PSoC5/cyfitter_cfg.c **** 			count--;
 223              		.loc 1 188 0
 224 0052 FB7B     		ldrb	r3, [r7, #15]	@ zero_extendqisi2
 225 0054 013B     		subs	r3, r3, #1
 226 0056 FB73     		strb	r3, [r7, #15]
 227              	.L8:
 184:Generated_Source\PSoC5/cyfitter_cfg.c **** 		{
 228              		.loc 1 184 0
 229 0058 FB7B     		ldrb	r3, [r7, #15]	@ zero_extendqisi2
 230 005a 002B     		cmp	r3, #0
 231 005c E7D1     		bne	.L9
 232              	.LBE2:
 179:Generated_Source\PSoC5/cyfitter_cfg.c **** 	{
 233              		.loc 1 179 0 discriminator 2
 234 005e 7B69     		ldr	r3, [r7, #20]
 235 0060 0133     		adds	r3, r3, #1
 236 0062 7B61     		str	r3, [r7, #20]
 237              	.L7:
 179:Generated_Source\PSoC5/cyfitter_cfg.c **** 	{
 238              		.loc 1 179 0 is_stmt 0 discriminator 1
 239 0064 7B69     		ldr	r3, [r7, #20]
 240 0066 122B     		cmp	r3, #18
 241 0068 D4D9     		bls	.L10
 189:Generated_Source\PSoC5/cyfitter_cfg.c **** 		}
 190:Generated_Source\PSoC5/cyfitter_cfg.c **** 	}
 191:Generated_Source\PSoC5/cyfitter_cfg.c **** }
 242              		.loc 1 191 0 is_stmt 1
 243 006a 1C37     		adds	r7, r7, #28
 244              		.cfi_def_cfa_offset 4
 245 006c BD46     		mov	sp, r7
 246              		.cfi_def_cfa_register 13
 247              		@ sp needed
 248 006e 5DF8047B 		ldr	r7, [sp], #4
 249              		.cfi_restore 7
 250              		.cfi_def_cfa_offset 0
 251 0072 7047     		bx	lr
 252              		.cfi_endproc
 253              	.LFE4:
 254              		.size	cfg_write_bytes32, .-cfg_write_bytes32
 255              		.section	.text.ClockSetup,"ax",%progbits
 256              		.align	2
 257              		.thumb
 258              		.thumb_func
 259              		.type	ClockSetup, %function
 260              	ClockSetup:
 261              	.LFB5:
 192:Generated_Source\PSoC5/cyfitter_cfg.c **** 
ARM GAS  C:\Users\gding\AppData\Local\Temp\ccWlITBc.s 			page 9


 193:Generated_Source\PSoC5/cyfitter_cfg.c **** /*******************************************************************************
 194:Generated_Source\PSoC5/cyfitter_cfg.c **** * Function Name: ClockSetup
 195:Generated_Source\PSoC5/cyfitter_cfg.c **** ********************************************************************************
 196:Generated_Source\PSoC5/cyfitter_cfg.c **** *
 197:Generated_Source\PSoC5/cyfitter_cfg.c **** * Summary:
 198:Generated_Source\PSoC5/cyfitter_cfg.c **** *  Performs the initialization of all of the clocks in the device based on the
 199:Generated_Source\PSoC5/cyfitter_cfg.c **** *  settings in the Clock tab of the DWR.  This includes enabling the requested
 200:Generated_Source\PSoC5/cyfitter_cfg.c **** *  clocks and setting the necessary dividers to produce the desired frequency. 
 201:Generated_Source\PSoC5/cyfitter_cfg.c **** *
 202:Generated_Source\PSoC5/cyfitter_cfg.c **** * Parameters:
 203:Generated_Source\PSoC5/cyfitter_cfg.c **** *  void
 204:Generated_Source\PSoC5/cyfitter_cfg.c **** *
 205:Generated_Source\PSoC5/cyfitter_cfg.c **** * Return:
 206:Generated_Source\PSoC5/cyfitter_cfg.c **** *  void
 207:Generated_Source\PSoC5/cyfitter_cfg.c **** *
 208:Generated_Source\PSoC5/cyfitter_cfg.c **** *******************************************************************************/
 209:Generated_Source\PSoC5/cyfitter_cfg.c **** static void ClockSetup(void);
 210:Generated_Source\PSoC5/cyfitter_cfg.c **** static void ClockSetup(void)
 211:Generated_Source\PSoC5/cyfitter_cfg.c **** {
 262              		.loc 1 211 0
 263              		.cfi_startproc
 264              		@ args = 0, pretend = 0, frame = 8
 265              		@ frame_needed = 1, uses_anonymous_args = 0
 266 0000 80B5     		push	{r7, lr}
 267              		.cfi_def_cfa_offset 8
 268              		.cfi_offset 7, -8
 269              		.cfi_offset 14, -4
 270 0002 82B0     		sub	sp, sp, #8
 271              		.cfi_def_cfa_offset 16
 272 0004 00AF     		add	r7, sp, #0
 273              		.cfi_def_cfa_register 7
 212:Generated_Source\PSoC5/cyfitter_cfg.c **** 	uint32 timeout;
 213:Generated_Source\PSoC5/cyfitter_cfg.c **** 	uint8 pllLock;
 214:Generated_Source\PSoC5/cyfitter_cfg.c **** 
 215:Generated_Source\PSoC5/cyfitter_cfg.c **** 
 216:Generated_Source\PSoC5/cyfitter_cfg.c **** 	/* Configure Digital Clocks based on settings from Clock DWR */
 217:Generated_Source\PSoC5/cyfitter_cfg.c **** 	CY_SET_XTND_REG16((void CYFAR *)(CYREG_CLKDIST_DCFG0_CFG0), 0x0000u);
 274              		.loc 1 217 0
 275 0006 3C4B     		ldr	r3, .L16
 276 0008 0022     		movs	r2, #0
 277 000a 1A80     		strh	r2, [r3]	@ movhi
 218:Generated_Source\PSoC5/cyfitter_cfg.c **** 	CY_SET_XTND_REG8((void CYFAR *)(CYREG_CLKDIST_DCFG0_CFG0 + 0x2u), 0x50u);
 278              		.loc 1 218 0
 279 000c 3B4B     		ldr	r3, .L16+4
 280 000e 5022     		movs	r2, #80
 281 0010 1A70     		strb	r2, [r3]
 219:Generated_Source\PSoC5/cyfitter_cfg.c **** 
 220:Generated_Source\PSoC5/cyfitter_cfg.c **** 	/* Configure Analog Clocks based on settings from Clock DWR */
 221:Generated_Source\PSoC5/cyfitter_cfg.c **** 	CYCONFIGCPY((void CYFAR *)(CYREG_CLKDIST_ACFG0_CFG0), (const void CYFAR *)(BS_CYDEV_CLKDIST_ACFG0_
 282              		.loc 1 221 0
 283 0012 3B48     		ldr	r0, .L16+8
 284 0014 3B49     		ldr	r1, .L16+12
 285 0016 0422     		movs	r2, #4
 286 0018 FFF7FEFF 		bl	CYCONFIGCPY
 222:Generated_Source\PSoC5/cyfitter_cfg.c **** 
 223:Generated_Source\PSoC5/cyfitter_cfg.c **** 	/* Configure ILO based on settings from Clock DWR */
 224:Generated_Source\PSoC5/cyfitter_cfg.c **** 	CY_SET_XTND_REG8((void CYFAR *)(CYREG_SLOWCLK_ILO_CR0), 0x02u);
ARM GAS  C:\Users\gding\AppData\Local\Temp\ccWlITBc.s 			page 10


 287              		.loc 1 224 0
 288 001c 3A4B     		ldr	r3, .L16+16
 289 001e 0222     		movs	r2, #2
 290 0020 1A70     		strb	r2, [r3]
 225:Generated_Source\PSoC5/cyfitter_cfg.c **** 	CY_SET_XTND_REG8((void CYFAR *)(CYREG_CLKDIST_CR), 0x08u);
 291              		.loc 1 225 0
 292 0022 4FF04023 		mov	r3, #1073758208
 293 0026 0822     		movs	r2, #8
 294 0028 1A70     		strb	r2, [r3]
 226:Generated_Source\PSoC5/cyfitter_cfg.c **** 
 227:Generated_Source\PSoC5/cyfitter_cfg.c **** 	/* Configure IMO based on settings from Clock DWR */
 228:Generated_Source\PSoC5/cyfitter_cfg.c **** 	CY_SET_XTND_REG8((void CYFAR *)(CYREG_FASTCLK_IMO_CR), 0x03u);
 295              		.loc 1 228 0
 296 002a 384B     		ldr	r3, .L16+20
 297 002c 0322     		movs	r2, #3
 298 002e 1A70     		strb	r2, [r3]
 229:Generated_Source\PSoC5/cyfitter_cfg.c **** 	CY_SET_XTND_REG8((void CYFAR *)(CYREG_IMO_TR1), (CY_GET_XTND_REG8((void CYFAR *)CYREG_FLSHID_CUST_
 299              		.loc 1 229 0
 300 0030 374B     		ldr	r3, .L16+24
 301 0032 384A     		ldr	r2, .L16+28
 302 0034 1278     		ldrb	r2, [r2]
 303 0036 D2B2     		uxtb	r2, r2
 304 0038 1A70     		strb	r2, [r3]
 230:Generated_Source\PSoC5/cyfitter_cfg.c **** 
 231:Generated_Source\PSoC5/cyfitter_cfg.c **** 	/* Configure PLL based on settings from Clock DWR */
 232:Generated_Source\PSoC5/cyfitter_cfg.c **** 	CY_SET_XTND_REG16((void CYFAR *)(CYREG_FASTCLK_PLL_P), 0x0008u);
 305              		.loc 1 232 0
 306 003a 374B     		ldr	r3, .L16+32
 307 003c 0822     		movs	r2, #8
 308 003e 1A80     		strh	r2, [r3]	@ movhi
 233:Generated_Source\PSoC5/cyfitter_cfg.c **** 	CY_SET_XTND_REG16((void CYFAR *)(CYREG_FASTCLK_PLL_CFG0), 0x1251u);
 309              		.loc 1 233 0
 310 0040 364B     		ldr	r3, .L16+36
 311 0042 41F25122 		movw	r2, #4689
 312 0046 1A80     		strh	r2, [r3]	@ movhi
 234:Generated_Source\PSoC5/cyfitter_cfg.c **** 	/* Wait up to 250us for the PLL to lock */
 235:Generated_Source\PSoC5/cyfitter_cfg.c **** 	pllLock = 0u;
 313              		.loc 1 235 0
 314 0048 0023     		movs	r3, #0
 315 004a FB70     		strb	r3, [r7, #3]
 236:Generated_Source\PSoC5/cyfitter_cfg.c **** 	for (timeout = 250u / 10u; (timeout > 0u) && (pllLock != 0x03u); timeout--)
 316              		.loc 1 236 0
 317 004c 1923     		movs	r3, #25
 318 004e 7B60     		str	r3, [r7, #4]
 319 0050 14E0     		b	.L12
 320              	.L14:
 237:Generated_Source\PSoC5/cyfitter_cfg.c **** 	{ 
 238:Generated_Source\PSoC5/cyfitter_cfg.c **** 		pllLock = 0x03u & ((uint8)((uint8)pllLock << 1) | ((CY_GET_XTND_REG8((void CYFAR *)CYREG_FASTCLK_
 321              		.loc 1 238 0 discriminator 4
 322 0052 FB78     		ldrb	r3, [r7, #3]
 323 0054 5B00     		lsls	r3, r3, #1
 324 0056 DAB2     		uxtb	r2, r3
 325 0058 314B     		ldr	r3, .L16+40
 326 005a 1B78     		ldrb	r3, [r3]
 327 005c DBB2     		uxtb	r3, r3
 328 005e 03F00103 		and	r3, r3, #1
 329 0062 DBB2     		uxtb	r3, r3
ARM GAS  C:\Users\gding\AppData\Local\Temp\ccWlITBc.s 			page 11


 330 0064 1343     		orrs	r3, r3, r2
 331 0066 DBB2     		uxtb	r3, r3
 332 0068 03F00303 		and	r3, r3, #3
 333 006c FB70     		strb	r3, [r7, #3]
 239:Generated_Source\PSoC5/cyfitter_cfg.c **** 		CyDelayCycles(10u * 48u); /* Delay 10us based on 48MHz clock */
 334              		.loc 1 239 0 discriminator 4
 335 006e 4FF4F070 		mov	r0, #480
 336 0072 FFF7FEFF 		bl	CyDelayCycles
 236:Generated_Source\PSoC5/cyfitter_cfg.c **** 	for (timeout = 250u / 10u; (timeout > 0u) && (pllLock != 0x03u); timeout--)
 337              		.loc 1 236 0 discriminator 4
 338 0076 7B68     		ldr	r3, [r7, #4]
 339 0078 013B     		subs	r3, r3, #1
 340 007a 7B60     		str	r3, [r7, #4]
 341              	.L12:
 236:Generated_Source\PSoC5/cyfitter_cfg.c **** 	for (timeout = 250u / 10u; (timeout > 0u) && (pllLock != 0x03u); timeout--)
 342              		.loc 1 236 0 is_stmt 0 discriminator 1
 343 007c 7B68     		ldr	r3, [r7, #4]
 344 007e 002B     		cmp	r3, #0
 345 0080 02D0     		beq	.L13
 236:Generated_Source\PSoC5/cyfitter_cfg.c **** 	for (timeout = 250u / 10u; (timeout > 0u) && (pllLock != 0x03u); timeout--)
 346              		.loc 1 236 0 discriminator 3
 347 0082 FB78     		ldrb	r3, [r7, #3]	@ zero_extendqisi2
 348 0084 032B     		cmp	r3, #3
 349 0086 E4D1     		bne	.L14
 350              	.L13:
 240:Generated_Source\PSoC5/cyfitter_cfg.c **** 	}
 241:Generated_Source\PSoC5/cyfitter_cfg.c **** 	/* If we ran out of time the PLL didn't lock so go to the error function */
 242:Generated_Source\PSoC5/cyfitter_cfg.c **** 	if (timeout == 0u)
 351              		.loc 1 242 0 is_stmt 1
 352 0088 7B68     		ldr	r3, [r7, #4]
 353 008a 002B     		cmp	r3, #0
 354 008c 02D1     		bne	.L15
 243:Generated_Source\PSoC5/cyfitter_cfg.c **** 	{
 244:Generated_Source\PSoC5/cyfitter_cfg.c **** 		CyClockStartupError(CYCLOCKSTART_PLL_ERROR);
 355              		.loc 1 244 0
 356 008e 0320     		movs	r0, #3
 357 0090 FFF7FEFF 		bl	CyClockStartupError
 358              	.L15:
 245:Generated_Source\PSoC5/cyfitter_cfg.c **** 	}
 246:Generated_Source\PSoC5/cyfitter_cfg.c **** 
 247:Generated_Source\PSoC5/cyfitter_cfg.c **** 	/* Configure Bus/Master Clock based on settings from Clock DWR */
 248:Generated_Source\PSoC5/cyfitter_cfg.c **** 	CY_SET_XTND_REG16((void CYFAR *)(CYREG_CLKDIST_MSTR0), 0x0100u);
 359              		.loc 1 248 0
 360 0094 234B     		ldr	r3, .L16+44
 361 0096 4FF48072 		mov	r2, #256
 362 009a 1A80     		strh	r2, [r3]	@ movhi
 249:Generated_Source\PSoC5/cyfitter_cfg.c **** 	CY_SET_XTND_REG8((void CYFAR *)(CYREG_CLKDIST_MSTR0), 0x07u);
 363              		.loc 1 249 0
 364 009c 214B     		ldr	r3, .L16+44
 365 009e 0722     		movs	r2, #7
 366 00a0 1A70     		strb	r2, [r3]
 250:Generated_Source\PSoC5/cyfitter_cfg.c **** 	CY_SET_XTND_REG8((void CYFAR *)(CYREG_CLKDIST_BCFG0), 0x00u);
 367              		.loc 1 250 0
 368 00a2 214B     		ldr	r3, .L16+48
 369 00a4 0022     		movs	r2, #0
 370 00a6 1A70     		strb	r2, [r3]
 251:Generated_Source\PSoC5/cyfitter_cfg.c **** 	CY_SET_XTND_REG8((void CYFAR *)(CYREG_CLKDIST_BCFG2), 0x48u);
ARM GAS  C:\Users\gding\AppData\Local\Temp\ccWlITBc.s 			page 12


 371              		.loc 1 251 0
 372 00a8 204B     		ldr	r3, .L16+52
 373 00aa 4822     		movs	r2, #72
 374 00ac 1A70     		strb	r2, [r3]
 252:Generated_Source\PSoC5/cyfitter_cfg.c **** 	CY_SET_XTND_REG8((void CYFAR *)(CYREG_CLKDIST_MSTR0), 0x00u);
 375              		.loc 1 252 0
 376 00ae 1D4B     		ldr	r3, .L16+44
 377 00b0 0022     		movs	r2, #0
 378 00b2 1A70     		strb	r2, [r3]
 253:Generated_Source\PSoC5/cyfitter_cfg.c **** 	CY_SET_XTND_REG8((void CYFAR *)(CYREG_CLKDIST_LD), 0x02u);
 379              		.loc 1 253 0
 380 00b4 1E4B     		ldr	r3, .L16+56
 381 00b6 0222     		movs	r2, #2
 382 00b8 1A70     		strb	r2, [r3]
 254:Generated_Source\PSoC5/cyfitter_cfg.c **** 	CY_SET_XTND_REG8((void CYFAR *)(CYREG_CLKDIST_DLY1), 0x04u);
 383              		.loc 1 254 0
 384 00ba 1E4B     		ldr	r3, .L16+60
 385 00bc 0422     		movs	r2, #4
 386 00be 1A70     		strb	r2, [r3]
 255:Generated_Source\PSoC5/cyfitter_cfg.c **** 
 256:Generated_Source\PSoC5/cyfitter_cfg.c **** 	CY_SET_XTND_REG8((void CYFAR *)(CYREG_PM_ACT_CFG2), ((CY_GET_XTND_REG8((void CYFAR *)CYREG_PM_ACT_
 387              		.loc 1 256 0
 388 00c0 1D4A     		ldr	r2, .L16+64
 389 00c2 1D4B     		ldr	r3, .L16+64
 390 00c4 1B78     		ldrb	r3, [r3]
 391 00c6 DBB2     		uxtb	r3, r3
 392 00c8 43F00103 		orr	r3, r3, #1
 393 00cc DBB2     		uxtb	r3, r3
 394 00ce 1370     		strb	r3, [r2]
 257:Generated_Source\PSoC5/cyfitter_cfg.c **** 	CY_SET_XTND_REG8((void CYFAR *)(CYREG_PM_ACT_CFG1), ((CY_GET_XTND_REG8((void CYFAR *)CYREG_PM_ACT_
 395              		.loc 1 257 0
 396 00d0 1A4A     		ldr	r2, .L16+68
 397 00d2 1A4B     		ldr	r3, .L16+68
 398 00d4 1B78     		ldrb	r3, [r3]
 399 00d6 DBB2     		uxtb	r3, r3
 400 00d8 43F00103 		orr	r3, r3, #1
 401 00dc DBB2     		uxtb	r3, r3
 402 00de 1370     		strb	r3, [r2]
 258:Generated_Source\PSoC5/cyfitter_cfg.c **** 	CY_SET_XTND_REG8((void CYFAR *)(CYREG_PM_ACT_CFG0), ((CY_GET_XTND_REG8((void CYFAR *)CYREG_PM_ACT_
 403              		.loc 1 258 0
 404 00e0 174A     		ldr	r2, .L16+72
 405 00e2 174B     		ldr	r3, .L16+72
 406 00e4 1B78     		ldrb	r3, [r3]
 407 00e6 DBB2     		uxtb	r3, r3
 408 00e8 63F07F03 		orn	r3, r3, #127
 409 00ec DBB2     		uxtb	r3, r3
 410 00ee 1370     		strb	r3, [r2]
 259:Generated_Source\PSoC5/cyfitter_cfg.c **** }
 411              		.loc 1 259 0
 412 00f0 0837     		adds	r7, r7, #8
 413              		.cfi_def_cfa_offset 8
 414 00f2 BD46     		mov	sp, r7
 415              		.cfi_def_cfa_register 13
 416              		@ sp needed
 417 00f4 80BD     		pop	{r7, pc}
 418              	.L17:
 419 00f6 00BF     		.align	2
ARM GAS  C:\Users\gding\AppData\Local\Temp\ccWlITBc.s 			page 13


 420              	.L16:
 421 00f8 80400040 		.word	1073758336
 422 00fc 82400040 		.word	1073758338
 423 0100 00410040 		.word	1073758464
 424 0104 E0000048 		.word	1207959776
 425 0108 00430040 		.word	1073758976
 426 010c 00420040 		.word	1073758720
 427 0110 A1460040 		.word	1073759905
 428 0114 08010049 		.word	1224737032
 429 0118 22420040 		.word	1073758754
 430 011c 20420040 		.word	1073758752
 431 0120 25420040 		.word	1073758757
 432 0124 04400040 		.word	1073758212
 433 0128 06400040 		.word	1073758214
 434 012c 08400040 		.word	1073758216
 435 0130 01400040 		.word	1073758209
 436 0134 0B400040 		.word	1073758219
 437 0138 A2430040 		.word	1073759138
 438 013c A1430040 		.word	1073759137
 439 0140 A0430040 		.word	1073759136
 440              		.cfi_endproc
 441              	.LFE5:
 442              		.size	ClockSetup, .-ClockSetup
 443              		.section	.text.AnalogSetDefault,"ax",%progbits
 444              		.align	2
 445              		.thumb
 446              		.thumb_func
 447              		.type	AnalogSetDefault, %function
 448              	AnalogSetDefault:
 449              	.LFB6:
 260:Generated_Source\PSoC5/cyfitter_cfg.c **** 
 261:Generated_Source\PSoC5/cyfitter_cfg.c **** 
 262:Generated_Source\PSoC5/cyfitter_cfg.c **** /* Analog API Functions */
 263:Generated_Source\PSoC5/cyfitter_cfg.c **** 
 264:Generated_Source\PSoC5/cyfitter_cfg.c **** 
 265:Generated_Source\PSoC5/cyfitter_cfg.c **** /*******************************************************************************
 266:Generated_Source\PSoC5/cyfitter_cfg.c **** * Function Name: AnalogSetDefault
 267:Generated_Source\PSoC5/cyfitter_cfg.c **** ********************************************************************************
 268:Generated_Source\PSoC5/cyfitter_cfg.c **** *
 269:Generated_Source\PSoC5/cyfitter_cfg.c **** * Summary:
 270:Generated_Source\PSoC5/cyfitter_cfg.c **** *  Sets up the analog portions of the chip to default values based on chip
 271:Generated_Source\PSoC5/cyfitter_cfg.c **** *  configuration options from the project.
 272:Generated_Source\PSoC5/cyfitter_cfg.c **** *
 273:Generated_Source\PSoC5/cyfitter_cfg.c **** * Parameters:
 274:Generated_Source\PSoC5/cyfitter_cfg.c **** *  void
 275:Generated_Source\PSoC5/cyfitter_cfg.c **** *
 276:Generated_Source\PSoC5/cyfitter_cfg.c **** * Return:
 277:Generated_Source\PSoC5/cyfitter_cfg.c **** *  void
 278:Generated_Source\PSoC5/cyfitter_cfg.c **** *
 279:Generated_Source\PSoC5/cyfitter_cfg.c **** *******************************************************************************/
 280:Generated_Source\PSoC5/cyfitter_cfg.c **** static void AnalogSetDefault(void);
 281:Generated_Source\PSoC5/cyfitter_cfg.c **** static void AnalogSetDefault(void)
 282:Generated_Source\PSoC5/cyfitter_cfg.c **** {
 450              		.loc 1 282 0
 451              		.cfi_startproc
 452              		@ args = 0, pretend = 0, frame = 8
 453              		@ frame_needed = 1, uses_anonymous_args = 0
ARM GAS  C:\Users\gding\AppData\Local\Temp\ccWlITBc.s 			page 14


 454              		@ link register save eliminated.
 455 0000 80B4     		push	{r7}
 456              		.cfi_def_cfa_offset 4
 457              		.cfi_offset 7, -4
 458 0002 83B0     		sub	sp, sp, #12
 459              		.cfi_def_cfa_offset 16
 460 0004 00AF     		add	r7, sp, #0
 461              		.cfi_def_cfa_register 7
 283:Generated_Source\PSoC5/cyfitter_cfg.c **** 	uint8 bg_xover_inl_trim = CY_GET_XTND_REG8((void CYFAR *)(CYREG_FLSHID_MFG_CFG_BG_XOVER_INL_TRIM +
 462              		.loc 1 283 0
 463 0006 0F4B     		ldr	r3, .L19
 464 0008 1B78     		ldrb	r3, [r3]
 465 000a FB71     		strb	r3, [r7, #7]
 284:Generated_Source\PSoC5/cyfitter_cfg.c **** 	CY_SET_XTND_REG8((void CYFAR *)(CYREG_BG_DFT0), (bg_xover_inl_trim & 0x07u));
 466              		.loc 1 284 0
 467 000c 0E4A     		ldr	r2, .L19+4
 468 000e FB79     		ldrb	r3, [r7, #7]
 469 0010 03F00703 		and	r3, r3, #7
 470 0014 DBB2     		uxtb	r3, r3
 471 0016 1370     		strb	r3, [r2]
 285:Generated_Source\PSoC5/cyfitter_cfg.c **** 	CY_SET_XTND_REG8((void CYFAR *)(CYREG_BG_DFT1), ((bg_xover_inl_trim >> 4) & 0x0Fu));
 472              		.loc 1 285 0
 473 0018 0C4A     		ldr	r2, .L19+8
 474 001a FB79     		ldrb	r3, [r7, #7]	@ zero_extendqisi2
 475 001c 1B09     		lsrs	r3, r3, #4
 476 001e DBB2     		uxtb	r3, r3
 477 0020 1370     		strb	r3, [r2]
 286:Generated_Source\PSoC5/cyfitter_cfg.c **** 	CY_SET_XTND_REG8((void CYFAR *)CYREG_PRT3_AG, 0x04u);
 478              		.loc 1 286 0
 479 0022 0B4B     		ldr	r3, .L19+12
 480 0024 0422     		movs	r2, #4
 481 0026 1A70     		strb	r2, [r3]
 287:Generated_Source\PSoC5/cyfitter_cfg.c **** 	CY_SET_XTND_REG8((void CYFAR *)CYREG_DSM0_SW0, 0x40u);
 482              		.loc 1 287 0
 483 0028 0A4B     		ldr	r3, .L19+16
 484 002a 4022     		movs	r2, #64
 485 002c 1A70     		strb	r2, [r3]
 288:Generated_Source\PSoC5/cyfitter_cfg.c **** 	CY_SET_XTND_REG8((void CYFAR *)CYREG_BUS_SW0, 0x40u);
 486              		.loc 1 288 0
 487 002e 0A4B     		ldr	r3, .L19+20
 488 0030 4022     		movs	r2, #64
 489 0032 1A70     		strb	r2, [r3]
 289:Generated_Source\PSoC5/cyfitter_cfg.c **** 	CY_SET_XTND_REG8((void CYFAR *)CYREG_PUMP_CR0, 0x44u);
 490              		.loc 1 289 0
 491 0034 094B     		ldr	r3, .L19+24
 492 0036 4422     		movs	r2, #68
 493 0038 1A70     		strb	r2, [r3]
 290:Generated_Source\PSoC5/cyfitter_cfg.c **** }
 494              		.loc 1 290 0
 495 003a 0C37     		adds	r7, r7, #12
 496              		.cfi_def_cfa_offset 4
 497 003c BD46     		mov	sp, r7
 498              		.cfi_def_cfa_register 13
 499              		@ sp needed
 500 003e 5DF8047B 		ldr	r7, [sp], #4
 501              		.cfi_restore 7
 502              		.cfi_def_cfa_offset 0
ARM GAS  C:\Users\gding\AppData\Local\Temp\ccWlITBc.s 			page 15


 503 0042 7047     		bx	lr
 504              	.L20:
 505              		.align	2
 506              	.L19:
 507 0044 CF010049 		.word	1224737231
 508 0048 6E580040 		.word	1073764462
 509 004c 6F580040 		.word	1073764463
 510 0050 3D510040 		.word	1073762621
 511 0054 005B0040 		.word	1073765120
 512 0058 585B0040 		.word	1073765208
 513 005c 76580040 		.word	1073764470
 514              		.cfi_endproc
 515              	.LFE6:
 516              		.size	AnalogSetDefault, .-AnalogSetDefault
 517              		.section	.text.SetAnalogRoutingPumps,"ax",%progbits
 518              		.align	2
 519              		.global	SetAnalogRoutingPumps
 520              		.thumb
 521              		.thumb_func
 522              		.type	SetAnalogRoutingPumps, %function
 523              	SetAnalogRoutingPumps:
 524              	.LFB7:
 291:Generated_Source\PSoC5/cyfitter_cfg.c **** 
 292:Generated_Source\PSoC5/cyfitter_cfg.c **** 
 293:Generated_Source\PSoC5/cyfitter_cfg.c **** /*******************************************************************************
 294:Generated_Source\PSoC5/cyfitter_cfg.c **** * Function Name: SetAnalogRoutingPumps
 295:Generated_Source\PSoC5/cyfitter_cfg.c **** ********************************************************************************
 296:Generated_Source\PSoC5/cyfitter_cfg.c **** *
 297:Generated_Source\PSoC5/cyfitter_cfg.c **** * Summary:
 298:Generated_Source\PSoC5/cyfitter_cfg.c **** * Enables or disables the analog pumps feeding analog routing switches.
 299:Generated_Source\PSoC5/cyfitter_cfg.c **** * Intended to be called at startup, based on the Vdda system configuration;
 300:Generated_Source\PSoC5/cyfitter_cfg.c **** * may be called during operation when the user informs us that the Vdda voltage
 301:Generated_Source\PSoC5/cyfitter_cfg.c **** * crossed the pump threshold.
 302:Generated_Source\PSoC5/cyfitter_cfg.c **** *
 303:Generated_Source\PSoC5/cyfitter_cfg.c **** * Parameters:
 304:Generated_Source\PSoC5/cyfitter_cfg.c **** *  enabled - 1 to enable the pumps, 0 to disable the pumps
 305:Generated_Source\PSoC5/cyfitter_cfg.c **** *
 306:Generated_Source\PSoC5/cyfitter_cfg.c **** * Return:
 307:Generated_Source\PSoC5/cyfitter_cfg.c **** *  void
 308:Generated_Source\PSoC5/cyfitter_cfg.c **** *
 309:Generated_Source\PSoC5/cyfitter_cfg.c **** *******************************************************************************/
 310:Generated_Source\PSoC5/cyfitter_cfg.c **** void SetAnalogRoutingPumps(uint8 enabled)
 311:Generated_Source\PSoC5/cyfitter_cfg.c **** {
 525              		.loc 1 311 0
 526              		.cfi_startproc
 527              		@ args = 0, pretend = 0, frame = 16
 528              		@ frame_needed = 1, uses_anonymous_args = 0
 529              		@ link register save eliminated.
 530 0000 80B4     		push	{r7}
 531              		.cfi_def_cfa_offset 4
 532              		.cfi_offset 7, -4
 533 0002 85B0     		sub	sp, sp, #20
 534              		.cfi_def_cfa_offset 24
 535 0004 00AF     		add	r7, sp, #0
 536              		.cfi_def_cfa_register 7
 537 0006 0346     		mov	r3, r0
 538 0008 FB71     		strb	r3, [r7, #7]
ARM GAS  C:\Users\gding\AppData\Local\Temp\ccWlITBc.s 			page 16


 312:Generated_Source\PSoC5/cyfitter_cfg.c **** 	uint8 regValue = CY_GET_XTND_REG8((void CYFAR *)CYREG_PUMP_CR0);
 539              		.loc 1 312 0
 540 000a 0B4B     		ldr	r3, .L24
 541 000c 1B78     		ldrb	r3, [r3]
 542 000e FB73     		strb	r3, [r7, #15]
 313:Generated_Source\PSoC5/cyfitter_cfg.c **** 	if (enabled != 0u)
 543              		.loc 1 313 0
 544 0010 FB79     		ldrb	r3, [r7, #7]	@ zero_extendqisi2
 545 0012 002B     		cmp	r3, #0
 546 0014 04D0     		beq	.L22
 314:Generated_Source\PSoC5/cyfitter_cfg.c **** 	{
 315:Generated_Source\PSoC5/cyfitter_cfg.c **** 		regValue |= 0x22u;
 547              		.loc 1 315 0
 548 0016 FB7B     		ldrb	r3, [r7, #15]
 549 0018 43F02203 		orr	r3, r3, #34
 550 001c FB73     		strb	r3, [r7, #15]
 551 001e 03E0     		b	.L23
 552              	.L22:
 316:Generated_Source\PSoC5/cyfitter_cfg.c **** 	}
 317:Generated_Source\PSoC5/cyfitter_cfg.c **** 	else
 318:Generated_Source\PSoC5/cyfitter_cfg.c **** 	{
 319:Generated_Source\PSoC5/cyfitter_cfg.c **** 		regValue &= (uint8)~0x22u;
 553              		.loc 1 319 0
 554 0020 FB7B     		ldrb	r3, [r7, #15]
 555 0022 23F02203 		bic	r3, r3, #34
 556 0026 FB73     		strb	r3, [r7, #15]
 557              	.L23:
 320:Generated_Source\PSoC5/cyfitter_cfg.c **** 	}
 321:Generated_Source\PSoC5/cyfitter_cfg.c **** 	CY_SET_XTND_REG8((void CYFAR *)CYREG_PUMP_CR0, regValue);
 558              		.loc 1 321 0
 559 0028 034A     		ldr	r2, .L24
 560 002a FB7B     		ldrb	r3, [r7, #15]
 561 002c 1370     		strb	r3, [r2]
 322:Generated_Source\PSoC5/cyfitter_cfg.c **** }
 562              		.loc 1 322 0
 563 002e 1437     		adds	r7, r7, #20
 564              		.cfi_def_cfa_offset 4
 565 0030 BD46     		mov	sp, r7
 566              		.cfi_def_cfa_register 13
 567              		@ sp needed
 568 0032 5DF8047B 		ldr	r7, [sp], #4
 569              		.cfi_restore 7
 570              		.cfi_def_cfa_offset 0
 571 0036 7047     		bx	lr
 572              	.L25:
 573              		.align	2
 574              	.L24:
 575 0038 76580040 		.word	1073764470
 576              		.cfi_endproc
 577              	.LFE7:
 578              		.size	SetAnalogRoutingPumps, .-SetAnalogRoutingPumps
 579              		.global	ADC_DelSig_1_AMux__addrTable
 580              		.section	.rodata
 581              		.align	2
 582              		.type	ADC_DelSig_1_AMux__addrTable, %object
 583              		.size	ADC_DelSig_1_AMux__addrTable, 8
 584              	ADC_DelSig_1_AMux__addrTable:
ARM GAS  C:\Users\gding\AppData\Local\Temp\ccWlITBc.s 			page 17


 585 0000 035B0040 		.word	1073765123
 586 0004 24430040 		.word	1073759012
 587              		.global	ADC_DelSig_1_AMux__maskTable
 588              		.align	2
 589              		.type	ADC_DelSig_1_AMux__maskTable, %object
 590              		.size	ADC_DelSig_1_AMux__maskTable, 2
 591              	ADC_DelSig_1_AMux__maskTable:
 592 0008 40       		.byte	64
 593 0009 00       		.byte	0
 594              		.section	.text.ADC_DelSig_1_AMux_Set,"ax",%progbits
 595              		.align	2
 596              		.global	ADC_DelSig_1_AMux_Set
 597              		.thumb
 598              		.thumb_func
 599              		.type	ADC_DelSig_1_AMux_Set, %function
 600              	ADC_DelSig_1_AMux_Set:
 601              	.LFB8:
 323:Generated_Source\PSoC5/cyfitter_cfg.c **** 
 324:Generated_Source\PSoC5/cyfitter_cfg.c **** #define CY_AMUX_UNUSED CYREG_BOOST_SR
 325:Generated_Source\PSoC5/cyfitter_cfg.c **** /* This is an implementation detail of the AMux. Code that depends on it may be
 326:Generated_Source\PSoC5/cyfitter_cfg.c ****    incompatible with other versions of PSoC Creator. */
 327:Generated_Source\PSoC5/cyfitter_cfg.c **** uint8 CYXDATA * const CYCODE ADC_DelSig_1_AMux__addrTable[2] = {
 328:Generated_Source\PSoC5/cyfitter_cfg.c **** 	(uint8 CYXDATA *)CYREG_DSM0_SW3, 
 329:Generated_Source\PSoC5/cyfitter_cfg.c **** 	(uint8 CYXDATA *)CY_AMUX_UNUSED, 
 330:Generated_Source\PSoC5/cyfitter_cfg.c **** };
 331:Generated_Source\PSoC5/cyfitter_cfg.c **** 
 332:Generated_Source\PSoC5/cyfitter_cfg.c **** /* This is an implementation detail of the AMux. Code that depends on it may be
 333:Generated_Source\PSoC5/cyfitter_cfg.c ****    incompatible with other versions of PSoC Creator. */
 334:Generated_Source\PSoC5/cyfitter_cfg.c **** const uint8 CYCODE ADC_DelSig_1_AMux__maskTable[2] = {
 335:Generated_Source\PSoC5/cyfitter_cfg.c **** 	0x40u, 
 336:Generated_Source\PSoC5/cyfitter_cfg.c **** 	0x00u, 
 337:Generated_Source\PSoC5/cyfitter_cfg.c **** };
 338:Generated_Source\PSoC5/cyfitter_cfg.c **** 
 339:Generated_Source\PSoC5/cyfitter_cfg.c **** /*******************************************************************************
 340:Generated_Source\PSoC5/cyfitter_cfg.c **** * Function Name: ADC_DelSig_1_AMux_Set
 341:Generated_Source\PSoC5/cyfitter_cfg.c **** ********************************************************************************
 342:Generated_Source\PSoC5/cyfitter_cfg.c **** * Summary:
 343:Generated_Source\PSoC5/cyfitter_cfg.c **** *  This function is used to set a particular channel as active on the AMux.
 344:Generated_Source\PSoC5/cyfitter_cfg.c **** *
 345:Generated_Source\PSoC5/cyfitter_cfg.c **** * Parameters:  
 346:Generated_Source\PSoC5/cyfitter_cfg.c **** *   channel - The mux channel input to set as active
 347:Generated_Source\PSoC5/cyfitter_cfg.c **** *
 348:Generated_Source\PSoC5/cyfitter_cfg.c **** * Return:
 349:Generated_Source\PSoC5/cyfitter_cfg.c **** *   void
 350:Generated_Source\PSoC5/cyfitter_cfg.c **** *
 351:Generated_Source\PSoC5/cyfitter_cfg.c **** *******************************************************************************/
 352:Generated_Source\PSoC5/cyfitter_cfg.c **** void ADC_DelSig_1_AMux_Set(uint8 channel)
 353:Generated_Source\PSoC5/cyfitter_cfg.c **** {
 602              		.loc 1 353 0
 603              		.cfi_startproc
 604              		@ args = 0, pretend = 0, frame = 8
 605              		@ frame_needed = 1, uses_anonymous_args = 0
 606              		@ link register save eliminated.
 607 0000 80B4     		push	{r7}
 608              		.cfi_def_cfa_offset 4
 609              		.cfi_offset 7, -4
 610 0002 83B0     		sub	sp, sp, #12
ARM GAS  C:\Users\gding\AppData\Local\Temp\ccWlITBc.s 			page 18


 611              		.cfi_def_cfa_offset 16
 612 0004 00AF     		add	r7, sp, #0
 613              		.cfi_def_cfa_register 7
 614 0006 0346     		mov	r3, r0
 615 0008 FB71     		strb	r3, [r7, #7]
 354:Generated_Source\PSoC5/cyfitter_cfg.c **** 	if (channel < 2)
 616              		.loc 1 354 0
 617 000a FB79     		ldrb	r3, [r7, #7]	@ zero_extendqisi2
 618 000c 012B     		cmp	r3, #1
 619 000e 0ED8     		bhi	.L26
 355:Generated_Source\PSoC5/cyfitter_cfg.c **** 	{
 356:Generated_Source\PSoC5/cyfitter_cfg.c **** 		*ADC_DelSig_1_AMux__addrTable[channel] |= ADC_DelSig_1_AMux__maskTable[channel];
 620              		.loc 1 356 0
 621 0010 FB79     		ldrb	r3, [r7, #7]	@ zero_extendqisi2
 622 0012 094A     		ldr	r2, .L28
 623 0014 52F82330 		ldr	r3, [r2, r3, lsl #2]
 624 0018 FA79     		ldrb	r2, [r7, #7]	@ zero_extendqisi2
 625 001a 0749     		ldr	r1, .L28
 626 001c 51F82220 		ldr	r2, [r1, r2, lsl #2]
 627 0020 1178     		ldrb	r1, [r2]	@ zero_extendqisi2
 628 0022 FA79     		ldrb	r2, [r7, #7]	@ zero_extendqisi2
 629 0024 0548     		ldr	r0, .L28+4
 630 0026 825C     		ldrb	r2, [r0, r2]	@ zero_extendqisi2
 631 0028 0A43     		orrs	r2, r2, r1
 632 002a D2B2     		uxtb	r2, r2
 633 002c 1A70     		strb	r2, [r3]
 634              	.L26:
 357:Generated_Source\PSoC5/cyfitter_cfg.c **** 	}
 358:Generated_Source\PSoC5/cyfitter_cfg.c **** }
 635              		.loc 1 358 0
 636 002e 0C37     		adds	r7, r7, #12
 637              		.cfi_def_cfa_offset 4
 638 0030 BD46     		mov	sp, r7
 639              		.cfi_def_cfa_register 13
 640              		@ sp needed
 641 0032 5DF8047B 		ldr	r7, [sp], #4
 642              		.cfi_restore 7
 643              		.cfi_def_cfa_offset 0
 644 0036 7047     		bx	lr
 645              	.L29:
 646              		.align	2
 647              	.L28:
 648 0038 00000000 		.word	ADC_DelSig_1_AMux__addrTable
 649 003c 00000000 		.word	ADC_DelSig_1_AMux__maskTable
 650              		.cfi_endproc
 651              	.LFE8:
 652              		.size	ADC_DelSig_1_AMux_Set, .-ADC_DelSig_1_AMux_Set
 653              		.section	.text.ADC_DelSig_1_AMux_Unset,"ax",%progbits
 654              		.align	2
 655              		.global	ADC_DelSig_1_AMux_Unset
 656              		.thumb
 657              		.thumb_func
 658              		.type	ADC_DelSig_1_AMux_Unset, %function
 659              	ADC_DelSig_1_AMux_Unset:
 660              	.LFB9:
 359:Generated_Source\PSoC5/cyfitter_cfg.c **** 
 360:Generated_Source\PSoC5/cyfitter_cfg.c **** /*******************************************************************************
ARM GAS  C:\Users\gding\AppData\Local\Temp\ccWlITBc.s 			page 19


 361:Generated_Source\PSoC5/cyfitter_cfg.c **** * Function Name: ADC_DelSig_1_AMux_Unset
 362:Generated_Source\PSoC5/cyfitter_cfg.c **** ********************************************************************************
 363:Generated_Source\PSoC5/cyfitter_cfg.c **** * Summary:
 364:Generated_Source\PSoC5/cyfitter_cfg.c **** *  This function is used to clear a particular channel from being active on the
 365:Generated_Source\PSoC5/cyfitter_cfg.c **** *  AMux.
 366:Generated_Source\PSoC5/cyfitter_cfg.c **** *
 367:Generated_Source\PSoC5/cyfitter_cfg.c **** * Parameters:  
 368:Generated_Source\PSoC5/cyfitter_cfg.c **** *   channel - The mux channel input to mark inactive
 369:Generated_Source\PSoC5/cyfitter_cfg.c **** *
 370:Generated_Source\PSoC5/cyfitter_cfg.c **** * Return:
 371:Generated_Source\PSoC5/cyfitter_cfg.c **** *   void
 372:Generated_Source\PSoC5/cyfitter_cfg.c **** *
 373:Generated_Source\PSoC5/cyfitter_cfg.c **** *******************************************************************************/
 374:Generated_Source\PSoC5/cyfitter_cfg.c **** void ADC_DelSig_1_AMux_Unset(uint8 channel)
 375:Generated_Source\PSoC5/cyfitter_cfg.c **** {
 661              		.loc 1 375 0
 662              		.cfi_startproc
 663              		@ args = 0, pretend = 0, frame = 8
 664              		@ frame_needed = 1, uses_anonymous_args = 0
 665              		@ link register save eliminated.
 666 0000 80B4     		push	{r7}
 667              		.cfi_def_cfa_offset 4
 668              		.cfi_offset 7, -4
 669 0002 83B0     		sub	sp, sp, #12
 670              		.cfi_def_cfa_offset 16
 671 0004 00AF     		add	r7, sp, #0
 672              		.cfi_def_cfa_register 7
 673 0006 0346     		mov	r3, r0
 674 0008 FB71     		strb	r3, [r7, #7]
 376:Generated_Source\PSoC5/cyfitter_cfg.c **** 	if (channel < 2)
 675              		.loc 1 376 0
 676 000a FB79     		ldrb	r3, [r7, #7]	@ zero_extendqisi2
 677 000c 012B     		cmp	r3, #1
 678 000e 10D8     		bhi	.L30
 377:Generated_Source\PSoC5/cyfitter_cfg.c **** 	{
 378:Generated_Source\PSoC5/cyfitter_cfg.c **** 		*ADC_DelSig_1_AMux__addrTable[channel] &= (uint8)~ADC_DelSig_1_AMux__maskTable[channel];
 679              		.loc 1 378 0
 680 0010 FB79     		ldrb	r3, [r7, #7]	@ zero_extendqisi2
 681 0012 0A4A     		ldr	r2, .L32
 682 0014 52F82330 		ldr	r3, [r2, r3, lsl #2]
 683 0018 FA79     		ldrb	r2, [r7, #7]	@ zero_extendqisi2
 684 001a 0849     		ldr	r1, .L32
 685 001c 51F82220 		ldr	r2, [r1, r2, lsl #2]
 686 0020 1178     		ldrb	r1, [r2]	@ zero_extendqisi2
 687 0022 FA79     		ldrb	r2, [r7, #7]	@ zero_extendqisi2
 688 0024 0648     		ldr	r0, .L32+4
 689 0026 825C     		ldrb	r2, [r0, r2]	@ zero_extendqisi2
 690 0028 D243     		mvns	r2, r2
 691 002a D2B2     		uxtb	r2, r2
 692 002c 0A40     		ands	r2, r2, r1
 693 002e D2B2     		uxtb	r2, r2
 694 0030 1A70     		strb	r2, [r3]
 695              	.L30:
 379:Generated_Source\PSoC5/cyfitter_cfg.c **** 	}
 380:Generated_Source\PSoC5/cyfitter_cfg.c **** }
 696              		.loc 1 380 0
 697 0032 0C37     		adds	r7, r7, #12
ARM GAS  C:\Users\gding\AppData\Local\Temp\ccWlITBc.s 			page 20


 698              		.cfi_def_cfa_offset 4
 699 0034 BD46     		mov	sp, r7
 700              		.cfi_def_cfa_register 13
 701              		@ sp needed
 702 0036 5DF8047B 		ldr	r7, [sp], #4
 703              		.cfi_restore 7
 704              		.cfi_def_cfa_offset 0
 705 003a 7047     		bx	lr
 706              	.L33:
 707              		.align	2
 708              	.L32:
 709 003c 00000000 		.word	ADC_DelSig_1_AMux__addrTable
 710 0040 00000000 		.word	ADC_DelSig_1_AMux__maskTable
 711              		.cfi_endproc
 712              	.LFE9:
 713              		.size	ADC_DelSig_1_AMux_Unset, .-ADC_DelSig_1_AMux_Unset
 714              		.section	.text.cyfitter_cfg,"ax",%progbits
 715              		.align	2
 716              		.global	cyfitter_cfg
 717              		.thumb
 718              		.thumb_func
 719              		.type	cyfitter_cfg, %function
 720              	cyfitter_cfg:
 721              	.LFB10:
 381:Generated_Source\PSoC5/cyfitter_cfg.c **** 
 382:Generated_Source\PSoC5/cyfitter_cfg.c **** 
 383:Generated_Source\PSoC5/cyfitter_cfg.c **** 
 384:Generated_Source\PSoC5/cyfitter_cfg.c **** /*******************************************************************************
 385:Generated_Source\PSoC5/cyfitter_cfg.c **** * Function Name: cyfitter_cfg
 386:Generated_Source\PSoC5/cyfitter_cfg.c **** ********************************************************************************
 387:Generated_Source\PSoC5/cyfitter_cfg.c **** * Summary:
 388:Generated_Source\PSoC5/cyfitter_cfg.c **** *  This function is called by the start-up code for the selected device. It
 389:Generated_Source\PSoC5/cyfitter_cfg.c **** *  performs all of the necessary device configuration based on the design
 390:Generated_Source\PSoC5/cyfitter_cfg.c **** *  settings.  This includes settings from the Design Wide Resources (DWR) such
 391:Generated_Source\PSoC5/cyfitter_cfg.c **** *  as Clocks and Pins as well as any component configuration that is necessary.
 392:Generated_Source\PSoC5/cyfitter_cfg.c **** *
 393:Generated_Source\PSoC5/cyfitter_cfg.c **** * Parameters:  
 394:Generated_Source\PSoC5/cyfitter_cfg.c **** *   void
 395:Generated_Source\PSoC5/cyfitter_cfg.c **** *
 396:Generated_Source\PSoC5/cyfitter_cfg.c **** * Return:
 397:Generated_Source\PSoC5/cyfitter_cfg.c **** *   void
 398:Generated_Source\PSoC5/cyfitter_cfg.c **** *
 399:Generated_Source\PSoC5/cyfitter_cfg.c **** *******************************************************************************/
 400:Generated_Source\PSoC5/cyfitter_cfg.c **** 
 401:Generated_Source\PSoC5/cyfitter_cfg.c **** void cyfitter_cfg(void)
 402:Generated_Source\PSoC5/cyfitter_cfg.c **** {
 722              		.loc 1 402 0
 723              		.cfi_startproc
 724              		@ args = 0, pretend = 0, frame = 8
 725              		@ frame_needed = 1, uses_anonymous_args = 0
 726 0000 80B5     		push	{r7, lr}
 727              		.cfi_def_cfa_offset 8
 728              		.cfi_offset 7, -8
 729              		.cfi_offset 14, -4
 730 0002 82B0     		sub	sp, sp, #8
 731              		.cfi_def_cfa_offset 16
 732 0004 00AF     		add	r7, sp, #0
ARM GAS  C:\Users\gding\AppData\Local\Temp\ccWlITBc.s 			page 21


 733              		.cfi_def_cfa_register 7
 403:Generated_Source\PSoC5/cyfitter_cfg.c **** #ifdef CYGlobalIntDisable
 404:Generated_Source\PSoC5/cyfitter_cfg.c **** 	/* Disable interrupts by default. Let user enable if/when they want. */
 405:Generated_Source\PSoC5/cyfitter_cfg.c **** 	CYGlobalIntDisable
 734              		.loc 1 405 0
 735              	@ 405 "Generated_Source\PSoC5\cyfitter_cfg.c" 1
 736 0006 72B6     		CPSID   i
 737              	@ 0 "" 2
 406:Generated_Source\PSoC5/cyfitter_cfg.c **** #endif
 407:Generated_Source\PSoC5/cyfitter_cfg.c **** 
 408:Generated_Source\PSoC5/cyfitter_cfg.c **** 	/* Enable/Disable Debug functionality based on settings from System DWR */
 409:Generated_Source\PSoC5/cyfitter_cfg.c **** 	CY_SET_XTND_REG8((void CYFAR *)CYREG_MLOGIC_DEBUG, (CY_GET_XTND_REG8((void CYFAR *)CYREG_MLOGIC_DE
 738              		.loc 1 409 0
 739              		.thumb
 740 0008 3A4A     		ldr	r2, .L37
 741 000a 3A4B     		ldr	r3, .L37
 742 000c 1B78     		ldrb	r3, [r3]
 743 000e DBB2     		uxtb	r3, r3
 744 0010 43F00403 		orr	r3, r3, #4
 745 0014 DBB2     		uxtb	r3, r3
 746 0016 1370     		strb	r3, [r2]
 747              	.LBB3:
 410:Generated_Source\PSoC5/cyfitter_cfg.c **** 
 411:Generated_Source\PSoC5/cyfitter_cfg.c **** 	{
 412:Generated_Source\PSoC5/cyfitter_cfg.c **** 
 413:Generated_Source\PSoC5/cyfitter_cfg.c **** 		CYPACKED typedef struct {
 414:Generated_Source\PSoC5/cyfitter_cfg.c **** 			void CYFAR *address;
 415:Generated_Source\PSoC5/cyfitter_cfg.c **** 			uint16 size;
 416:Generated_Source\PSoC5/cyfitter_cfg.c **** 		} CYPACKED_ATTR cfg_memset_t;
 417:Generated_Source\PSoC5/cyfitter_cfg.c **** 
 418:Generated_Source\PSoC5/cyfitter_cfg.c **** 		static const cfg_memset_t CYCODE cfg_memset_list [] = {
 419:Generated_Source\PSoC5/cyfitter_cfg.c **** 			/* address, size */
 420:Generated_Source\PSoC5/cyfitter_cfg.c **** 			{(void CYFAR *)(CYREG_I2C_XCFG), 25u},
 421:Generated_Source\PSoC5/cyfitter_cfg.c **** 			{(void CYFAR *)(CYREG_TMR0_CFG0), 12u},
 422:Generated_Source\PSoC5/cyfitter_cfg.c **** 			{(void CYFAR *)(CYREG_PRT0_DR), 16u},
 423:Generated_Source\PSoC5/cyfitter_cfg.c **** 			{(void CYFAR *)(CYREG_PRT4_DR), 48u},
 424:Generated_Source\PSoC5/cyfitter_cfg.c **** 			{(void CYFAR *)(CYREG_PRT12_DR), 16u},
 425:Generated_Source\PSoC5/cyfitter_cfg.c **** 			{(void CYFAR *)(CYREG_PRT15_DR), 16u},
 426:Generated_Source\PSoC5/cyfitter_cfg.c **** 			{(void CYFAR *)(CYDEV_UCFG_B0_P0_U0_BASE), 4096u},
 427:Generated_Source\PSoC5/cyfitter_cfg.c **** 			{(void CYFAR *)(CYDEV_UCFG_B1_P2_U0_BASE), 2048u},
 428:Generated_Source\PSoC5/cyfitter_cfg.c **** 			{(void CYFAR *)(CYDEV_UCFG_DSI0_BASE), 2560u},
 429:Generated_Source\PSoC5/cyfitter_cfg.c **** 			{(void CYFAR *)(CYDEV_UCFG_DSI12_BASE), 512u},
 430:Generated_Source\PSoC5/cyfitter_cfg.c **** 			{(void CYFAR *)(CYREG_BCTL0_MDCLK_EN), 32u},
 431:Generated_Source\PSoC5/cyfitter_cfg.c **** 		};
 432:Generated_Source\PSoC5/cyfitter_cfg.c **** 
 433:Generated_Source\PSoC5/cyfitter_cfg.c **** 		uint8 CYDATA i;
 434:Generated_Source\PSoC5/cyfitter_cfg.c **** 
 435:Generated_Source\PSoC5/cyfitter_cfg.c **** 		/* Zero out critical memory blocks before beginning configuration */
 436:Generated_Source\PSoC5/cyfitter_cfg.c **** 		for (i = 0u; i < (sizeof(cfg_memset_list)/sizeof(cfg_memset_list[0])); i++)
 748              		.loc 1 436 0
 749 0018 0023     		movs	r3, #0
 750 001a FB71     		strb	r3, [r7, #7]
 751 001c 13E0     		b	.L35
 752              	.L36:
 753              	.LBB4:
 437:Generated_Source\PSoC5/cyfitter_cfg.c **** 		{
 438:Generated_Source\PSoC5/cyfitter_cfg.c **** 			const cfg_memset_t CYCODE * CYDATA ms = &cfg_memset_list[i];
ARM GAS  C:\Users\gding\AppData\Local\Temp\ccWlITBc.s 			page 22


 754              		.loc 1 438 0 discriminator 3
 755 001e FA79     		ldrb	r2, [r7, #7]	@ zero_extendqisi2
 756 0020 1346     		mov	r3, r2
 757 0022 5B00     		lsls	r3, r3, #1
 758 0024 1344     		add	r3, r3, r2
 759 0026 5B00     		lsls	r3, r3, #1
 760 0028 334A     		ldr	r2, .L37+4
 761 002a 1344     		add	r3, r3, r2
 762 002c 3B60     		str	r3, [r7]
 439:Generated_Source\PSoC5/cyfitter_cfg.c **** 			CYMEMZERO(ms->address, (size_t)(uint32)(ms->size));
 763              		.loc 1 439 0 discriminator 3
 764 002e 3B68     		ldr	r3, [r7]
 765 0030 1A68     		ldr	r2, [r3]	@ unaligned
 766 0032 3B68     		ldr	r3, [r7]
 767 0034 9B88     		ldrh	r3, [r3, #4]	@ unaligned
 768 0036 9BB2     		uxth	r3, r3
 769 0038 1046     		mov	r0, r2
 770 003a 1946     		mov	r1, r3
 771 003c FFF7FEFF 		bl	CYMEMZERO
 772              	.LBE4:
 436:Generated_Source\PSoC5/cyfitter_cfg.c **** 		{
 773              		.loc 1 436 0 discriminator 3
 774 0040 FB79     		ldrb	r3, [r7, #7]	@ zero_extendqisi2
 775 0042 0133     		adds	r3, r3, #1
 776 0044 FB71     		strb	r3, [r7, #7]
 777              	.L35:
 436:Generated_Source\PSoC5/cyfitter_cfg.c **** 		{
 778              		.loc 1 436 0 is_stmt 0 discriminator 1
 779 0046 FB79     		ldrb	r3, [r7, #7]	@ zero_extendqisi2
 780 0048 0A2B     		cmp	r3, #10
 781 004a E8D9     		bls	.L36
 440:Generated_Source\PSoC5/cyfitter_cfg.c **** 		}
 441:Generated_Source\PSoC5/cyfitter_cfg.c **** 
 442:Generated_Source\PSoC5/cyfitter_cfg.c **** 		cfg_write_bytes32(cy_cfg_addr_table, cy_cfg_data_table);
 782              		.loc 1 442 0 is_stmt 1
 783 004c 4FF09040 		mov	r0, #1207959552
 784 0050 2A49     		ldr	r1, .L37+8
 785 0052 FFF7FEFF 		bl	cfg_write_bytes32
 443:Generated_Source\PSoC5/cyfitter_cfg.c **** 
 444:Generated_Source\PSoC5/cyfitter_cfg.c **** 		/* Perform normal device configuration. Order is not critical for these items. */
 445:Generated_Source\PSoC5/cyfitter_cfg.c **** 		CY_SET_XTND_REG8((void CYFAR *)(CYREG_DSM0_CR3), 0x0Au);
 786              		.loc 1 445 0
 787 0056 2A4B     		ldr	r3, .L37+12
 788 0058 0A22     		movs	r2, #10
 789 005a 1A70     		strb	r2, [r3]
 446:Generated_Source\PSoC5/cyfitter_cfg.c **** 
 447:Generated_Source\PSoC5/cyfitter_cfg.c **** 		/* Enable digital routing */
 448:Generated_Source\PSoC5/cyfitter_cfg.c **** 		CY_SET_XTND_REG8((void CYFAR *)CYREG_BCTL0_BANK_CTL, CY_GET_XTND_REG8((void CYFAR *)CYREG_BCTL0_B
 790              		.loc 1 448 0
 791 005c 294A     		ldr	r2, .L37+16
 792 005e 294B     		ldr	r3, .L37+16
 793 0060 1B78     		ldrb	r3, [r3]
 794 0062 DBB2     		uxtb	r3, r3
 795 0064 43F00203 		orr	r3, r3, #2
 796 0068 DBB2     		uxtb	r3, r3
 797 006a 1370     		strb	r3, [r2]
 449:Generated_Source\PSoC5/cyfitter_cfg.c **** 		CY_SET_XTND_REG8((void CYFAR *)CYREG_BCTL1_BANK_CTL, CY_GET_XTND_REG8((void CYFAR *)CYREG_BCTL1_B
ARM GAS  C:\Users\gding\AppData\Local\Temp\ccWlITBc.s 			page 23


 798              		.loc 1 449 0
 799 006c 264A     		ldr	r2, .L37+20
 800 006e 264B     		ldr	r3, .L37+20
 801 0070 1B78     		ldrb	r3, [r3]
 802 0072 DBB2     		uxtb	r3, r3
 803 0074 43F00203 		orr	r3, r3, #2
 804 0078 DBB2     		uxtb	r3, r3
 805 007a 1370     		strb	r3, [r2]
 450:Generated_Source\PSoC5/cyfitter_cfg.c **** 
 451:Generated_Source\PSoC5/cyfitter_cfg.c **** 		/* Enable UDB array */
 452:Generated_Source\PSoC5/cyfitter_cfg.c **** 		CY_SET_XTND_REG8((void CYFAR *)CYREG_PM_ACT_CFG0, CY_GET_XTND_REG8((void CYFAR *)CYREG_PM_ACT_CFG
 806              		.loc 1 452 0
 807 007c 234A     		ldr	r2, .L37+24
 808 007e 234B     		ldr	r3, .L37+24
 809 0080 1B78     		ldrb	r3, [r3]
 810 0082 DBB2     		uxtb	r3, r3
 811 0084 43F04003 		orr	r3, r3, #64
 812 0088 DBB2     		uxtb	r3, r3
 813 008a 1370     		strb	r3, [r2]
 453:Generated_Source\PSoC5/cyfitter_cfg.c **** 		CY_SET_XTND_REG8((void CYFAR *)CYREG_PM_AVAIL_CR2, CY_GET_XTND_REG8((void CYFAR *)CYREG_PM_AVAIL_
 814              		.loc 1 453 0
 815 008c 204A     		ldr	r2, .L37+28
 816 008e 204B     		ldr	r3, .L37+28
 817 0090 1B78     		ldrb	r3, [r3]
 818 0092 DBB2     		uxtb	r3, r3
 819 0094 43F01003 		orr	r3, r3, #16
 820 0098 DBB2     		uxtb	r3, r3
 821 009a 1370     		strb	r3, [r2]
 822              	.LBE3:
 454:Generated_Source\PSoC5/cyfitter_cfg.c **** 	}
 455:Generated_Source\PSoC5/cyfitter_cfg.c **** 
 456:Generated_Source\PSoC5/cyfitter_cfg.c **** 
 457:Generated_Source\PSoC5/cyfitter_cfg.c **** 	/* Perform second pass device configuration. These items must be configured in specific order afte
 458:Generated_Source\PSoC5/cyfitter_cfg.c **** 	CYCONFIGCPY((void CYFAR *)(CYREG_PRT1_DR), (const void CYFAR *)(BS_IOPINS0_1_VAL), 10u);
 823              		.loc 1 458 0
 824 009c 1D48     		ldr	r0, .L37+32
 825 009e 1E49     		ldr	r1, .L37+36
 826 00a0 0A22     		movs	r2, #10
 827 00a2 FFF7FEFF 		bl	CYCONFIGCPY
 459:Generated_Source\PSoC5/cyfitter_cfg.c **** 	CYCONFIGCPY((void CYFAR *)(CYREG_PRT2_DM0), (const void CYFAR *)(BS_IOPINS0_2_VAL), 8u);
 828              		.loc 1 459 0
 829 00a6 1D48     		ldr	r0, .L37+40
 830 00a8 1D49     		ldr	r1, .L37+44
 831 00aa 0822     		movs	r2, #8
 832 00ac FFF7FEFF 		bl	CYCONFIGCPY
 460:Generated_Source\PSoC5/cyfitter_cfg.c **** 	CYCONFIGCPY((void CYFAR *)(CYREG_PRT3_DM0), (const void CYFAR *)(BS_IOPINS0_3_VAL), 8u);
 833              		.loc 1 460 0
 834 00b0 1C48     		ldr	r0, .L37+48
 835 00b2 1D49     		ldr	r1, .L37+52
 836 00b4 0822     		movs	r2, #8
 837 00b6 FFF7FEFF 		bl	CYCONFIGCPY
 461:Generated_Source\PSoC5/cyfitter_cfg.c **** 	/* Switch Boost to the precision bandgap reference from its internal reference */
 462:Generated_Source\PSoC5/cyfitter_cfg.c **** 	CY_SET_REG8((void CYXDATA *)CYREG_BOOST_CR2, (CY_GET_REG8((void CYXDATA *)CYREG_BOOST_CR2) | 0x08u
 838              		.loc 1 462 0
 839 00ba 1C4A     		ldr	r2, .L37+56
 840 00bc 1B4B     		ldr	r3, .L37+56
 841 00be 1B78     		ldrb	r3, [r3]
ARM GAS  C:\Users\gding\AppData\Local\Temp\ccWlITBc.s 			page 24


 842 00c0 DBB2     		uxtb	r3, r3
 843 00c2 43F00803 		orr	r3, r3, #8
 844 00c6 DBB2     		uxtb	r3, r3
 845 00c8 1370     		strb	r3, [r2]
 463:Generated_Source\PSoC5/cyfitter_cfg.c **** 
 464:Generated_Source\PSoC5/cyfitter_cfg.c **** 	/* Set Flash Cycles based on max possible frequency in case a glitch occurs during ClockSetup(). *
 465:Generated_Source\PSoC5/cyfitter_cfg.c **** 	CY_SET_XTND_REG8((void CYFAR *)(CYREG_CACHE_CC_CTL), (((CYDEV_INSTRUCT_CACHE_ENABLED) != 0) ? 0x01
 846              		.loc 1 465 0
 847 00ca 194B     		ldr	r3, .L37+60
 848 00cc 0022     		movs	r2, #0
 849 00ce 1A70     		strb	r2, [r3]
 466:Generated_Source\PSoC5/cyfitter_cfg.c **** 	/* Setup clocks based on selections from Clock DWR */
 467:Generated_Source\PSoC5/cyfitter_cfg.c **** 	ClockSetup();
 850              		.loc 1 467 0
 851 00d0 FFF7FEFF 		bl	ClockSetup
 468:Generated_Source\PSoC5/cyfitter_cfg.c **** 	/* Set Flash Cycles based on newly configured 24.00MHz Bus Clock. */
 469:Generated_Source\PSoC5/cyfitter_cfg.c **** 	CY_SET_XTND_REG8((void CYFAR *)(CYREG_CACHE_CC_CTL), (((CYDEV_INSTRUCT_CACHE_ENABLED) != 0) ? 0x81
 852              		.loc 1 469 0
 853 00d4 164B     		ldr	r3, .L37+60
 854 00d6 8022     		movs	r2, #128
 855 00d8 1A70     		strb	r2, [r3]
 470:Generated_Source\PSoC5/cyfitter_cfg.c **** 	CY_SET_XTND_REG8((void CYFAR *)(CYREG_PANTHER_WAITPIPE), 0x01u);
 856              		.loc 1 470 0
 857 00da 164B     		ldr	r3, .L37+64
 858 00dc 0122     		movs	r2, #1
 859 00de 1A70     		strb	r2, [r3]
 471:Generated_Source\PSoC5/cyfitter_cfg.c **** 
 472:Generated_Source\PSoC5/cyfitter_cfg.c **** 	/* Perform basic analog initialization to defaults */
 473:Generated_Source\PSoC5/cyfitter_cfg.c **** 	AnalogSetDefault();
 860              		.loc 1 473 0
 861 00e0 FFF7FEFF 		bl	AnalogSetDefault
 474:Generated_Source\PSoC5/cyfitter_cfg.c **** 
 475:Generated_Source\PSoC5/cyfitter_cfg.c **** 	/* Configure alternate active mode */
 476:Generated_Source\PSoC5/cyfitter_cfg.c **** 	CYCONFIGCPY((void CYFAR *)CYDEV_PM_STBY_BASE, (const void CYFAR *)CYDEV_PM_ACT_BASE, 14u);
 862              		.loc 1 476 0
 863 00e4 1448     		ldr	r0, .L37+68
 864 00e6 0949     		ldr	r1, .L37+24
 865 00e8 0E22     		movs	r2, #14
 866 00ea FFF7FEFF 		bl	CYCONFIGCPY
 477:Generated_Source\PSoC5/cyfitter_cfg.c **** }
 867              		.loc 1 477 0
 868 00ee 0837     		adds	r7, r7, #8
 869              		.cfi_def_cfa_offset 8
 870 00f0 BD46     		mov	sp, r7
 871              		.cfi_def_cfa_register 13
 872              		@ sp needed
 873 00f2 80BD     		pop	{r7, pc}
 874              	.L38:
 875              		.align	2
 876              	.L37:
 877 00f4 E8460040 		.word	1073759976
 878 00f8 0C000000 		.word	cfg_memset_list.4894
 879 00fc 4C000048 		.word	1207959628
 880 0100 83580040 		.word	1073764483
 881 0104 03500140 		.word	1073827843
 882 0108 13500140 		.word	1073827859
 883 010c A0430040 		.word	1073759136
ARM GAS  C:\Users\gding\AppData\Local\Temp\ccWlITBc.s 			page 25


 884 0110 C2430040 		.word	1073759170
 885 0114 10510040 		.word	1073762576
 886 0118 C4000048 		.word	1207959748
 887 011c 22510040 		.word	1073762594
 888 0120 D0000048 		.word	1207959760
 889 0124 32510040 		.word	1073762610
 890 0128 D8000048 		.word	1207959768
 891 012c 22430040 		.word	1073759010
 892 0130 00480040 		.word	1073760256
 893 0134 04000840 		.word	1074266116
 894 0138 B0430040 		.word	1073759152
 895              		.cfi_endproc
 896              	.LFE10:
 897              		.size	cyfitter_cfg, .-cyfitter_cfg
 898              		.section	.rodata
 899 000a 0000     		.align	2
 900              		.type	cfg_memset_list.4894, %object
 901              		.size	cfg_memset_list.4894, 66
 902              	cfg_memset_list.4894:
 903 000c C8490040 		.word	1073760712
 904 0010 1900     		.short	25
 905 0012 004F0040 		.4byte	1073762048
 906 0016 0C00     		.short	12
 907 0018 00510040 		.word	1073762560
 908 001c 1000     		.short	16
 909 001e 40510040 		.4byte	1073762624
 910 0022 3000     		.short	48
 911 0024 C0510040 		.word	1073762752
 912 0028 1000     		.short	16
 913 002a F0510040 		.4byte	1073762800
 914 002e 1000     		.short	16
 915 0030 00000140 		.word	1073807360
 916 0034 0010     		.short	4096
 917 0036 00140140 		.4byte	1073812480
 918 003a 0008     		.short	2048
 919 003c 00400140 		.word	1073823744
 920 0040 000A     		.short	2560
 921 0042 004C0140 		.4byte	1073826816
 922 0046 0002     		.short	512
 923 0048 00500140 		.word	1073827840
 924 004c 2000     		.short	32
 925 004e 0000     		.text
 926              	.Letext0:
 927              		.file 2 "c:\\program files (x86)\\cypress\\psoc creator\\4.0\\psoc creator\\import\\gnu\\arm\\4.9.
 928              		.file 3 "Generated_Source\\PSoC5\\cytypes.h"