ARM GAS  C:\Users\gding\AppData\Local\Temp\ccfMr269.s 			page 1


   1              		.syntax unified
   2              		.cpu cortex-m3
   3              		.fpu softvfp
   4              		.eabi_attribute 20, 1
   5              		.eabi_attribute 21, 1
   6              		.eabi_attribute 23, 3
   7              		.eabi_attribute 24, 1
   8              		.eabi_attribute 25, 1
   9              		.eabi_attribute 26, 1
  10              		.eabi_attribute 30, 6
  11              		.eabi_attribute 34, 1
  12              		.eabi_attribute 18, 4
  13              		.thumb
  14              		.file	"i2cFunctions.c"
  15              		.text
  16              	.Ltext0:
  17              		.cfi_sections	.debug_frame
  18              		.section	.text.I2CReadBytes,"ax",%progbits
  19              		.align	2
  20              		.global	I2CReadBytes
  21              		.thumb
  22              		.thumb_func
  23              		.type	I2CReadBytes, %function
  24              	I2CReadBytes:
  25              	.LFB63:
  26              		.file 1 "..\\i2cFunctions.c"
   1:..\i2cFunctions.c **** /* ========================================
   2:..\i2cFunctions.c ****  *
   3:..\i2cFunctions.c ****  * Copyright Samuel Walsh, 2014
   4:..\i2cFunctions.c ****  * All Rights Reserved
   5:..\i2cFunctions.c ****  * UNPUBLISHED, LICENSED SOFTWARE.
   6:..\i2cFunctions.c ****  *
   7:..\i2cFunctions.c ****  * CONFIDENTIAL AND PROPRIETARY INFORMATION
   8:..\i2cFunctions.c ****  * WHICH IS THE PROPERTY OF Samuel Walsh.
   9:..\i2cFunctions.c ****  *
  10:..\i2cFunctions.c ****  * ========================================
  11:..\i2cFunctions.c **** */
  12:..\i2cFunctions.c **** 
  13:..\i2cFunctions.c **** /* [] END OF FILE */
  14:..\i2cFunctions.c **** 
  15:..\i2cFunctions.c **** #include <project.h>
  16:..\i2cFunctions.c **** 
  17:..\i2cFunctions.c **** 
  18:..\i2cFunctions.c **** void I2CReadBytes(uint8_t devAddr, uint8_t regAddr, uint8_t length, uint8_t *value) {
  27              		.loc 1 18 0
  28              		.cfi_startproc
  29              		@ args = 0, pretend = 0, frame = 16
  30              		@ frame_needed = 1, uses_anonymous_args = 0
  31 0000 90B5     		push	{r4, r7, lr}
  32              		.cfi_def_cfa_offset 12
  33              		.cfi_offset 4, -12
  34              		.cfi_offset 7, -8
  35              		.cfi_offset 14, -4
  36 0002 85B0     		sub	sp, sp, #20
  37              		.cfi_def_cfa_offset 32
  38 0004 00AF     		add	r7, sp, #0
  39              		.cfi_def_cfa_register 7
ARM GAS  C:\Users\gding\AppData\Local\Temp\ccfMr269.s 			page 2


  40 0006 3B60     		str	r3, [r7]
  41 0008 0346     		mov	r3, r0
  42 000a FB71     		strb	r3, [r7, #7]
  43 000c 0B46     		mov	r3, r1
  44 000e BB71     		strb	r3, [r7, #6]
  45 0010 1346     		mov	r3, r2
  46 0012 7B71     		strb	r3, [r7, #5]
  19:..\i2cFunctions.c **** 	uint8_t i=0;
  47              		.loc 1 19 0
  48 0014 0023     		movs	r3, #0
  49 0016 FB73     		strb	r3, [r7, #15]
  20:..\i2cFunctions.c **** 	I2C_Master_MasterSendStart(devAddr, I2C_Master_WRITE_XFER_MODE);
  50              		.loc 1 20 0
  51 0018 FB79     		ldrb	r3, [r7, #7]	@ zero_extendqisi2
  52 001a 1846     		mov	r0, r3
  53 001c 0021     		movs	r1, #0
  54 001e FFF7FEFF 		bl	I2C_Master_MasterSendStart
  21:..\i2cFunctions.c **** 	I2C_Master_MasterWriteByte(regAddr);
  55              		.loc 1 21 0
  56 0022 BB79     		ldrb	r3, [r7, #6]	@ zero_extendqisi2
  57 0024 1846     		mov	r0, r3
  58 0026 FFF7FEFF 		bl	I2C_Master_MasterWriteByte
  22:..\i2cFunctions.c **** 	I2C_Master_MasterSendRestart(devAddr, I2C_Master_READ_XFER_MODE);
  59              		.loc 1 22 0
  60 002a FB79     		ldrb	r3, [r7, #7]	@ zero_extendqisi2
  61 002c 1846     		mov	r0, r3
  62 002e 0121     		movs	r1, #1
  63 0030 FFF7FEFF 		bl	I2C_Master_MasterSendRestart
  23:..\i2cFunctions.c **** 	while (i++ < (length-1)) {
  64              		.loc 1 23 0
  65 0034 07E0     		b	.L2
  66              	.L3:
  24:..\i2cFunctions.c **** 		*value++ = I2C_Master_MasterReadByte(I2C_Master_ACK_DATA);
  67              		.loc 1 24 0
  68 0036 3C68     		ldr	r4, [r7]
  69 0038 631C     		adds	r3, r4, #1
  70 003a 3B60     		str	r3, [r7]
  71 003c 0120     		movs	r0, #1
  72 003e FFF7FEFF 		bl	I2C_Master_MasterReadByte
  73 0042 0346     		mov	r3, r0
  74 0044 2370     		strb	r3, [r4]
  75              	.L2:
  23:..\i2cFunctions.c **** 	while (i++ < (length-1)) {
  76              		.loc 1 23 0
  77 0046 FB7B     		ldrb	r3, [r7, #15]	@ zero_extendqisi2
  78 0048 5A1C     		adds	r2, r3, #1
  79 004a FA73     		strb	r2, [r7, #15]
  80 004c 1A46     		mov	r2, r3
  81 004e 7B79     		ldrb	r3, [r7, #5]	@ zero_extendqisi2
  82 0050 013B     		subs	r3, r3, #1
  83 0052 9A42     		cmp	r2, r3
  84 0054 EFDB     		blt	.L3
  25:..\i2cFunctions.c **** 	}
  26:..\i2cFunctions.c **** 	*value = I2C_Master_MasterReadByte(I2C_Master_NAK_DATA);
  85              		.loc 1 26 0
  86 0056 0020     		movs	r0, #0
  87 0058 FFF7FEFF 		bl	I2C_Master_MasterReadByte
ARM GAS  C:\Users\gding\AppData\Local\Temp\ccfMr269.s 			page 3


  88 005c 0346     		mov	r3, r0
  89 005e 1A46     		mov	r2, r3
  90 0060 3B68     		ldr	r3, [r7]
  91 0062 1A70     		strb	r2, [r3]
  27:..\i2cFunctions.c **** 	I2C_Master_MasterSendStop();	
  92              		.loc 1 27 0
  93 0064 FFF7FEFF 		bl	I2C_Master_MasterSendStop
  28:..\i2cFunctions.c **** }
  94              		.loc 1 28 0
  95 0068 1437     		adds	r7, r7, #20
  96              		.cfi_def_cfa_offset 12
  97 006a BD46     		mov	sp, r7
  98              		.cfi_def_cfa_register 13
  99              		@ sp needed
 100 006c 90BD     		pop	{r4, r7, pc}
 101              		.cfi_endproc
 102              	.LFE63:
 103              		.size	I2CReadBytes, .-I2CReadBytes
 104 006e 00BF     		.section	.text.I2CReadByte,"ax",%progbits
 105              		.align	2
 106              		.global	I2CReadByte
 107              		.thumb
 108              		.thumb_func
 109              		.type	I2CReadByte, %function
 110              	I2CReadByte:
 111              	.LFB64:
  29:..\i2cFunctions.c **** 
  30:..\i2cFunctions.c **** void I2CReadByte(uint8_t devAddr, uint8_t regAddr, uint8_t *value) {
 112              		.loc 1 30 0
 113              		.cfi_startproc
 114              		@ args = 0, pretend = 0, frame = 8
 115              		@ frame_needed = 1, uses_anonymous_args = 0
 116 0000 80B5     		push	{r7, lr}
 117              		.cfi_def_cfa_offset 8
 118              		.cfi_offset 7, -8
 119              		.cfi_offset 14, -4
 120 0002 82B0     		sub	sp, sp, #8
 121              		.cfi_def_cfa_offset 16
 122 0004 00AF     		add	r7, sp, #0
 123              		.cfi_def_cfa_register 7
 124 0006 0346     		mov	r3, r0
 125 0008 3A60     		str	r2, [r7]
 126 000a FB71     		strb	r3, [r7, #7]
 127 000c 0B46     		mov	r3, r1
 128 000e BB71     		strb	r3, [r7, #6]
  31:..\i2cFunctions.c **** 	I2CReadBytes(devAddr, regAddr, 1, value);
 129              		.loc 1 31 0
 130 0010 FA79     		ldrb	r2, [r7, #7]	@ zero_extendqisi2
 131 0012 BB79     		ldrb	r3, [r7, #6]	@ zero_extendqisi2
 132 0014 1046     		mov	r0, r2
 133 0016 1946     		mov	r1, r3
 134 0018 0122     		movs	r2, #1
 135 001a 3B68     		ldr	r3, [r7]
 136 001c FFF7FEFF 		bl	I2CReadBytes
  32:..\i2cFunctions.c **** }
 137              		.loc 1 32 0
 138 0020 0837     		adds	r7, r7, #8
ARM GAS  C:\Users\gding\AppData\Local\Temp\ccfMr269.s 			page 4


 139              		.cfi_def_cfa_offset 8
 140 0022 BD46     		mov	sp, r7
 141              		.cfi_def_cfa_register 13
 142              		@ sp needed
 143 0024 80BD     		pop	{r7, pc}
 144              		.cfi_endproc
 145              	.LFE64:
 146              		.size	I2CReadByte, .-I2CReadByte
 147 0026 00BF     		.section	.text.I2CReadBits,"ax",%progbits
 148              		.align	2
 149              		.global	I2CReadBits
 150              		.thumb
 151              		.thumb_func
 152              		.type	I2CReadBits, %function
 153              	I2CReadBits:
 154              	.LFB65:
  33:..\i2cFunctions.c **** 
  34:..\i2cFunctions.c **** void I2CReadBits(uint8_t devAddr, uint8_t regAddr, uint8_t bitStart, uint8_t length, uint8_t *value
 155              		.loc 1 34 0
 156              		.cfi_startproc
 157              		@ args = 4, pretend = 0, frame = 16
 158              		@ frame_needed = 1, uses_anonymous_args = 0
 159 0000 90B5     		push	{r4, r7, lr}
 160              		.cfi_def_cfa_offset 12
 161              		.cfi_offset 4, -12
 162              		.cfi_offset 7, -8
 163              		.cfi_offset 14, -4
 164 0002 85B0     		sub	sp, sp, #20
 165              		.cfi_def_cfa_offset 32
 166 0004 00AF     		add	r7, sp, #0
 167              		.cfi_def_cfa_register 7
 168 0006 0446     		mov	r4, r0
 169 0008 0846     		mov	r0, r1
 170 000a 1146     		mov	r1, r2
 171 000c 1A46     		mov	r2, r3
 172 000e 2346     		mov	r3, r4
 173 0010 FB71     		strb	r3, [r7, #7]
 174 0012 0346     		mov	r3, r0
 175 0014 BB71     		strb	r3, [r7, #6]
 176 0016 0B46     		mov	r3, r1
 177 0018 7B71     		strb	r3, [r7, #5]
 178 001a 1346     		mov	r3, r2
 179 001c 3B71     		strb	r3, [r7, #4]
  35:..\i2cFunctions.c ****    	uint8_t mask = ((1 << length) - 1) << (bitStart - length + 1);
 180              		.loc 1 35 0
 181 001e 3B79     		ldrb	r3, [r7, #4]	@ zero_extendqisi2
 182 0020 0122     		movs	r2, #1
 183 0022 02FA03F3 		lsl	r3, r2, r3
 184 0026 5A1E     		subs	r2, r3, #1
 185 0028 7979     		ldrb	r1, [r7, #5]	@ zero_extendqisi2
 186 002a 3B79     		ldrb	r3, [r7, #4]	@ zero_extendqisi2
 187 002c CB1A     		subs	r3, r1, r3
 188 002e 0133     		adds	r3, r3, #1
 189 0030 02FA03F3 		lsl	r3, r2, r3
 190 0034 FB73     		strb	r3, [r7, #15]
  36:..\i2cFunctions.c ****     I2CReadByte(devAddr, regAddr, value);
 191              		.loc 1 36 0
ARM GAS  C:\Users\gding\AppData\Local\Temp\ccfMr269.s 			page 5


 192 0036 FA79     		ldrb	r2, [r7, #7]	@ zero_extendqisi2
 193 0038 BB79     		ldrb	r3, [r7, #6]	@ zero_extendqisi2
 194 003a 1046     		mov	r0, r2
 195 003c 1946     		mov	r1, r3
 196 003e 3A6A     		ldr	r2, [r7, #32]
 197 0040 FFF7FEFF 		bl	I2CReadByte
  37:..\i2cFunctions.c ****     *value &= mask;
 198              		.loc 1 37 0
 199 0044 3B6A     		ldr	r3, [r7, #32]
 200 0046 1A78     		ldrb	r2, [r3]	@ zero_extendqisi2
 201 0048 FB7B     		ldrb	r3, [r7, #15]
 202 004a 1340     		ands	r3, r3, r2
 203 004c DAB2     		uxtb	r2, r3
 204 004e 3B6A     		ldr	r3, [r7, #32]
 205 0050 1A70     		strb	r2, [r3]
  38:..\i2cFunctions.c ****     *value >>= (bitStart - length + 1);
 206              		.loc 1 38 0
 207 0052 3B6A     		ldr	r3, [r7, #32]
 208 0054 1B78     		ldrb	r3, [r3]	@ zero_extendqisi2
 209 0056 1946     		mov	r1, r3
 210 0058 7A79     		ldrb	r2, [r7, #5]	@ zero_extendqisi2
 211 005a 3B79     		ldrb	r3, [r7, #4]	@ zero_extendqisi2
 212 005c D31A     		subs	r3, r2, r3
 213 005e 0133     		adds	r3, r3, #1
 214 0060 41FA03F3 		asr	r3, r1, r3
 215 0064 DAB2     		uxtb	r2, r3
 216 0066 3B6A     		ldr	r3, [r7, #32]
 217 0068 1A70     		strb	r2, [r3]
  39:..\i2cFunctions.c **** }
 218              		.loc 1 39 0
 219 006a 1437     		adds	r7, r7, #20
 220              		.cfi_def_cfa_offset 12
 221 006c BD46     		mov	sp, r7
 222              		.cfi_def_cfa_register 13
 223              		@ sp needed
 224 006e 90BD     		pop	{r4, r7, pc}
 225              		.cfi_endproc
 226              	.LFE65:
 227              		.size	I2CReadBits, .-I2CReadBits
 228              		.section	.text.I2CReadBit,"ax",%progbits
 229              		.align	2
 230              		.global	I2CReadBit
 231              		.thumb
 232              		.thumb_func
 233              		.type	I2CReadBit, %function
 234              	I2CReadBit:
 235              	.LFB66:
  40:..\i2cFunctions.c **** 
  41:..\i2cFunctions.c **** void I2CReadBit(uint8_t devAddr, uint8_t regAddr, uint8_t bitNum, uint8_t *value) {
 236              		.loc 1 41 0
 237              		.cfi_startproc
 238              		@ args = 0, pretend = 0, frame = 8
 239              		@ frame_needed = 1, uses_anonymous_args = 0
 240 0000 80B5     		push	{r7, lr}
 241              		.cfi_def_cfa_offset 8
 242              		.cfi_offset 7, -8
 243              		.cfi_offset 14, -4
ARM GAS  C:\Users\gding\AppData\Local\Temp\ccfMr269.s 			page 6


 244 0002 82B0     		sub	sp, sp, #8
 245              		.cfi_def_cfa_offset 16
 246 0004 00AF     		add	r7, sp, #0
 247              		.cfi_def_cfa_register 7
 248 0006 3B60     		str	r3, [r7]
 249 0008 0346     		mov	r3, r0
 250 000a FB71     		strb	r3, [r7, #7]
 251 000c 0B46     		mov	r3, r1
 252 000e BB71     		strb	r3, [r7, #6]
 253 0010 1346     		mov	r3, r2
 254 0012 7B71     		strb	r3, [r7, #5]
  42:..\i2cFunctions.c **** 	I2CReadByte(devAddr, regAddr, value);
 255              		.loc 1 42 0
 256 0014 FA79     		ldrb	r2, [r7, #7]	@ zero_extendqisi2
 257 0016 BB79     		ldrb	r3, [r7, #6]	@ zero_extendqisi2
 258 0018 1046     		mov	r0, r2
 259 001a 1946     		mov	r1, r3
 260 001c 3A68     		ldr	r2, [r7]
 261 001e FFF7FEFF 		bl	I2CReadByte
  43:..\i2cFunctions.c **** 	*value = *value & (1 << bitNum);
 262              		.loc 1 43 0
 263 0022 3B68     		ldr	r3, [r7]
 264 0024 1B78     		ldrb	r3, [r3]	@ zero_extendqisi2
 265 0026 D9B2     		uxtb	r1, r3
 266 0028 7B79     		ldrb	r3, [r7, #5]	@ zero_extendqisi2
 267 002a 0122     		movs	r2, #1
 268 002c 02FA03F3 		lsl	r3, r2, r3
 269 0030 DBB2     		uxtb	r3, r3
 270 0032 0A46     		mov	r2, r1
 271 0034 1340     		ands	r3, r3, r2
 272 0036 DBB2     		uxtb	r3, r3
 273 0038 DAB2     		uxtb	r2, r3
 274 003a 3B68     		ldr	r3, [r7]
 275 003c 1A70     		strb	r2, [r3]
  44:..\i2cFunctions.c **** }
 276              		.loc 1 44 0
 277 003e 0837     		adds	r7, r7, #8
 278              		.cfi_def_cfa_offset 8
 279 0040 BD46     		mov	sp, r7
 280              		.cfi_def_cfa_register 13
 281              		@ sp needed
 282 0042 80BD     		pop	{r7, pc}
 283              		.cfi_endproc
 284              	.LFE66:
 285              		.size	I2CReadBit, .-I2CReadBit
 286              		.section	.text.I2CWriteBytes,"ax",%progbits
 287              		.align	2
 288              		.global	I2CWriteBytes
 289              		.thumb
 290              		.thumb_func
 291              		.type	I2CWriteBytes, %function
 292              	I2CWriteBytes:
 293              	.LFB67:
  45:..\i2cFunctions.c **** 	
  46:..\i2cFunctions.c **** void I2CWriteBytes(uint8_t devAddr, uint8_t regAddr, uint8_t length, uint8_t *value) {
 294              		.loc 1 46 0
 295              		.cfi_startproc
ARM GAS  C:\Users\gding\AppData\Local\Temp\ccfMr269.s 			page 7


 296              		@ args = 0, pretend = 0, frame = 16
 297              		@ frame_needed = 1, uses_anonymous_args = 0
 298 0000 80B5     		push	{r7, lr}
 299              		.cfi_def_cfa_offset 8
 300              		.cfi_offset 7, -8
 301              		.cfi_offset 14, -4
 302 0002 84B0     		sub	sp, sp, #16
 303              		.cfi_def_cfa_offset 24
 304 0004 00AF     		add	r7, sp, #0
 305              		.cfi_def_cfa_register 7
 306 0006 3B60     		str	r3, [r7]
 307 0008 0346     		mov	r3, r0
 308 000a FB71     		strb	r3, [r7, #7]
 309 000c 0B46     		mov	r3, r1
 310 000e BB71     		strb	r3, [r7, #6]
 311 0010 1346     		mov	r3, r2
 312 0012 7B71     		strb	r3, [r7, #5]
  47:..\i2cFunctions.c **** 	uint8_t i=0;
 313              		.loc 1 47 0
 314 0014 0023     		movs	r3, #0
 315 0016 FB73     		strb	r3, [r7, #15]
  48:..\i2cFunctions.c **** 	I2C_Master_MasterSendStart(devAddr, I2C_Master_WRITE_XFER_MODE);
 316              		.loc 1 48 0
 317 0018 FB79     		ldrb	r3, [r7, #7]	@ zero_extendqisi2
 318 001a 1846     		mov	r0, r3
 319 001c 0021     		movs	r1, #0
 320 001e FFF7FEFF 		bl	I2C_Master_MasterSendStart
  49:..\i2cFunctions.c **** 	I2C_Master_MasterWriteByte(regAddr);
 321              		.loc 1 49 0
 322 0022 BB79     		ldrb	r3, [r7, #6]	@ zero_extendqisi2
 323 0024 1846     		mov	r0, r3
 324 0026 FFF7FEFF 		bl	I2C_Master_MasterWriteByte
  50:..\i2cFunctions.c **** 	while (i++ < length) {
 325              		.loc 1 50 0
 326 002a 06E0     		b	.L8
 327              	.L9:
  51:..\i2cFunctions.c **** 		I2C_Master_MasterWriteByte(*value++);
 328              		.loc 1 51 0
 329 002c 3B68     		ldr	r3, [r7]
 330 002e 5A1C     		adds	r2, r3, #1
 331 0030 3A60     		str	r2, [r7]
 332 0032 1B78     		ldrb	r3, [r3]	@ zero_extendqisi2
 333 0034 1846     		mov	r0, r3
 334 0036 FFF7FEFF 		bl	I2C_Master_MasterWriteByte
 335              	.L8:
  50:..\i2cFunctions.c **** 	while (i++ < length) {
 336              		.loc 1 50 0
 337 003a FB7B     		ldrb	r3, [r7, #15]	@ zero_extendqisi2
 338 003c 5A1C     		adds	r2, r3, #1
 339 003e FA73     		strb	r2, [r7, #15]
 340 0040 7A79     		ldrb	r2, [r7, #5]	@ zero_extendqisi2
 341 0042 9A42     		cmp	r2, r3
 342 0044 F2D8     		bhi	.L9
  52:..\i2cFunctions.c **** 	}
  53:..\i2cFunctions.c **** 	I2C_Master_MasterSendStop();	
 343              		.loc 1 53 0
 344 0046 FFF7FEFF 		bl	I2C_Master_MasterSendStop
ARM GAS  C:\Users\gding\AppData\Local\Temp\ccfMr269.s 			page 8


  54:..\i2cFunctions.c **** }
 345              		.loc 1 54 0
 346 004a 1037     		adds	r7, r7, #16
 347              		.cfi_def_cfa_offset 8
 348 004c BD46     		mov	sp, r7
 349              		.cfi_def_cfa_register 13
 350              		@ sp needed
 351 004e 80BD     		pop	{r7, pc}
 352              		.cfi_endproc
 353              	.LFE67:
 354              		.size	I2CWriteBytes, .-I2CWriteBytes
 355              		.section	.text.I2CWriteByte,"ax",%progbits
 356              		.align	2
 357              		.global	I2CWriteByte
 358              		.thumb
 359              		.thumb_func
 360              		.type	I2CWriteByte, %function
 361              	I2CWriteByte:
 362              	.LFB68:
  55:..\i2cFunctions.c **** 
  56:..\i2cFunctions.c **** void I2CWriteByte(uint8_t devAddr, uint8_t regAddr, uint8_t value) {
 363              		.loc 1 56 0
 364              		.cfi_startproc
 365              		@ args = 0, pretend = 0, frame = 8
 366              		@ frame_needed = 1, uses_anonymous_args = 0
 367 0000 80B5     		push	{r7, lr}
 368              		.cfi_def_cfa_offset 8
 369              		.cfi_offset 7, -8
 370              		.cfi_offset 14, -4
 371 0002 82B0     		sub	sp, sp, #8
 372              		.cfi_def_cfa_offset 16
 373 0004 00AF     		add	r7, sp, #0
 374              		.cfi_def_cfa_register 7
 375 0006 0346     		mov	r3, r0
 376 0008 FB71     		strb	r3, [r7, #7]
 377 000a 0B46     		mov	r3, r1
 378 000c BB71     		strb	r3, [r7, #6]
 379 000e 1346     		mov	r3, r2
 380 0010 7B71     		strb	r3, [r7, #5]
  57:..\i2cFunctions.c **** 	I2CWriteBytes(devAddr, regAddr, 1, &value);
 381              		.loc 1 57 0
 382 0012 F979     		ldrb	r1, [r7, #7]	@ zero_extendqisi2
 383 0014 BA79     		ldrb	r2, [r7, #6]	@ zero_extendqisi2
 384 0016 7B1D     		adds	r3, r7, #5
 385 0018 0846     		mov	r0, r1
 386 001a 1146     		mov	r1, r2
 387 001c 0122     		movs	r2, #1
 388 001e FFF7FEFF 		bl	I2CWriteBytes
  58:..\i2cFunctions.c **** }
 389              		.loc 1 58 0
 390 0022 0837     		adds	r7, r7, #8
 391              		.cfi_def_cfa_offset 8
 392 0024 BD46     		mov	sp, r7
 393              		.cfi_def_cfa_register 13
 394              		@ sp needed
 395 0026 80BD     		pop	{r7, pc}
 396              		.cfi_endproc
ARM GAS  C:\Users\gding\AppData\Local\Temp\ccfMr269.s 			page 9


 397              	.LFE68:
 398              		.size	I2CWriteByte, .-I2CWriteByte
 399              		.section	.text.I2CWriteBits,"ax",%progbits
 400              		.align	2
 401              		.global	I2CWriteBits
 402              		.thumb
 403              		.thumb_func
 404              		.type	I2CWriteBits, %function
 405              	I2CWriteBits:
 406              	.LFB69:
  59:..\i2cFunctions.c **** 
  60:..\i2cFunctions.c **** void I2CWriteBits(uint8_t devAddr, uint8_t regAddr, uint8_t bitStart, uint8_t length, uint8_t value
 407              		.loc 1 60 0
 408              		.cfi_startproc
 409              		@ args = 4, pretend = 0, frame = 16
 410              		@ frame_needed = 1, uses_anonymous_args = 0
 411 0000 90B5     		push	{r4, r7, lr}
 412              		.cfi_def_cfa_offset 12
 413              		.cfi_offset 4, -12
 414              		.cfi_offset 7, -8
 415              		.cfi_offset 14, -4
 416 0002 85B0     		sub	sp, sp, #20
 417              		.cfi_def_cfa_offset 32
 418 0004 00AF     		add	r7, sp, #0
 419              		.cfi_def_cfa_register 7
 420 0006 0446     		mov	r4, r0
 421 0008 0846     		mov	r0, r1
 422 000a 1146     		mov	r1, r2
 423 000c 1A46     		mov	r2, r3
 424 000e 2346     		mov	r3, r4
 425 0010 FB71     		strb	r3, [r7, #7]
 426 0012 0346     		mov	r3, r0
 427 0014 BB71     		strb	r3, [r7, #6]
 428 0016 0B46     		mov	r3, r1
 429 0018 7B71     		strb	r3, [r7, #5]
 430 001a 1346     		mov	r3, r2
 431 001c 3B71     		strb	r3, [r7, #4]
  61:..\i2cFunctions.c **** 	uint8_t b;
  62:..\i2cFunctions.c **** 	uint8_t mask = ((1 << length) - 1) << (bitStart - length + 1);
 432              		.loc 1 62 0
 433 001e 3B79     		ldrb	r3, [r7, #4]	@ zero_extendqisi2
 434 0020 0122     		movs	r2, #1
 435 0022 02FA03F3 		lsl	r3, r2, r3
 436 0026 5A1E     		subs	r2, r3, #1
 437 0028 7979     		ldrb	r1, [r7, #5]	@ zero_extendqisi2
 438 002a 3B79     		ldrb	r3, [r7, #4]	@ zero_extendqisi2
 439 002c CB1A     		subs	r3, r1, r3
 440 002e 0133     		adds	r3, r3, #1
 441 0030 02FA03F3 		lsl	r3, r2, r3
 442 0034 FB73     		strb	r3, [r7, #15]
  63:..\i2cFunctions.c **** 	I2CReadByte(devAddr, regAddr, &b);
 443              		.loc 1 63 0
 444 0036 F979     		ldrb	r1, [r7, #7]	@ zero_extendqisi2
 445 0038 BA79     		ldrb	r2, [r7, #6]	@ zero_extendqisi2
 446 003a 07F10E03 		add	r3, r7, #14
 447 003e 0846     		mov	r0, r1
 448 0040 1146     		mov	r1, r2
ARM GAS  C:\Users\gding\AppData\Local\Temp\ccfMr269.s 			page 10


 449 0042 1A46     		mov	r2, r3
 450 0044 FFF7FEFF 		bl	I2CReadByte
  64:..\i2cFunctions.c **** 	value <<= (bitStart - length + 1);
 451              		.loc 1 64 0
 452 0048 97F82020 		ldrb	r2, [r7, #32]	@ zero_extendqisi2
 453 004c 7979     		ldrb	r1, [r7, #5]	@ zero_extendqisi2
 454 004e 3B79     		ldrb	r3, [r7, #4]	@ zero_extendqisi2
 455 0050 CB1A     		subs	r3, r1, r3
 456 0052 0133     		adds	r3, r3, #1
 457 0054 02FA03F3 		lsl	r3, r2, r3
 458 0058 87F82030 		strb	r3, [r7, #32]
  65:..\i2cFunctions.c **** 	value &= mask;
 459              		.loc 1 65 0
 460 005c 97F82020 		ldrb	r2, [r7, #32]
 461 0060 FB7B     		ldrb	r3, [r7, #15]
 462 0062 1340     		ands	r3, r3, r2
 463 0064 87F82030 		strb	r3, [r7, #32]
  66:..\i2cFunctions.c **** 	b &= ~(mask);
 464              		.loc 1 66 0
 465 0068 FB7B     		ldrb	r3, [r7, #15]	@ zero_extendqisi2
 466 006a DB43     		mvns	r3, r3
 467 006c DAB2     		uxtb	r2, r3
 468 006e BB7B     		ldrb	r3, [r7, #14]	@ zero_extendqisi2
 469 0070 DBB2     		uxtb	r3, r3
 470 0072 1340     		ands	r3, r3, r2
 471 0074 DBB2     		uxtb	r3, r3
 472 0076 DBB2     		uxtb	r3, r3
 473 0078 BB73     		strb	r3, [r7, #14]
  67:..\i2cFunctions.c **** 	b |= value;
 474              		.loc 1 67 0
 475 007a BA7B     		ldrb	r2, [r7, #14]	@ zero_extendqisi2
 476 007c 97F82030 		ldrb	r3, [r7, #32]
 477 0080 1343     		orrs	r3, r3, r2
 478 0082 DBB2     		uxtb	r3, r3
 479 0084 BB73     		strb	r3, [r7, #14]
  68:..\i2cFunctions.c **** 	I2CWriteByte(devAddr, regAddr, b);	
 480              		.loc 1 68 0
 481 0086 BB7B     		ldrb	r3, [r7, #14]	@ zero_extendqisi2
 482 0088 F979     		ldrb	r1, [r7, #7]	@ zero_extendqisi2
 483 008a BA79     		ldrb	r2, [r7, #6]	@ zero_extendqisi2
 484 008c 0846     		mov	r0, r1
 485 008e 1146     		mov	r1, r2
 486 0090 1A46     		mov	r2, r3
 487 0092 FFF7FEFF 		bl	I2CWriteByte
  69:..\i2cFunctions.c **** }
 488              		.loc 1 69 0
 489 0096 1437     		adds	r7, r7, #20
 490              		.cfi_def_cfa_offset 12
 491 0098 BD46     		mov	sp, r7
 492              		.cfi_def_cfa_register 13
 493              		@ sp needed
 494 009a 90BD     		pop	{r4, r7, pc}
 495              		.cfi_endproc
 496              	.LFE69:
 497              		.size	I2CWriteBits, .-I2CWriteBits
 498              		.section	.text.I2CWriteBit,"ax",%progbits
 499              		.align	2
ARM GAS  C:\Users\gding\AppData\Local\Temp\ccfMr269.s 			page 11


 500              		.global	I2CWriteBit
 501              		.thumb
 502              		.thumb_func
 503              		.type	I2CWriteBit, %function
 504              	I2CWriteBit:
 505              	.LFB70:
  70:..\i2cFunctions.c **** 
  71:..\i2cFunctions.c **** void I2CWriteBit(uint8_t devAddr, uint8_t regAddr, uint8_t bitNum, uint8_t value) {
 506              		.loc 1 71 0
 507              		.cfi_startproc
 508              		@ args = 0, pretend = 0, frame = 16
 509              		@ frame_needed = 1, uses_anonymous_args = 0
 510 0000 90B5     		push	{r4, r7, lr}
 511              		.cfi_def_cfa_offset 12
 512              		.cfi_offset 4, -12
 513              		.cfi_offset 7, -8
 514              		.cfi_offset 14, -4
 515 0002 85B0     		sub	sp, sp, #20
 516              		.cfi_def_cfa_offset 32
 517 0004 00AF     		add	r7, sp, #0
 518              		.cfi_def_cfa_register 7
 519 0006 0446     		mov	r4, r0
 520 0008 0846     		mov	r0, r1
 521 000a 1146     		mov	r1, r2
 522 000c 1A46     		mov	r2, r3
 523 000e 2346     		mov	r3, r4
 524 0010 FB71     		strb	r3, [r7, #7]
 525 0012 0346     		mov	r3, r0
 526 0014 BB71     		strb	r3, [r7, #6]
 527 0016 0B46     		mov	r3, r1
 528 0018 7B71     		strb	r3, [r7, #5]
 529 001a 1346     		mov	r3, r2
 530 001c 3B71     		strb	r3, [r7, #4]
  72:..\i2cFunctions.c **** 	uint8_t b;
  73:..\i2cFunctions.c **** 	I2CReadByte(devAddr, regAddr, &b);
 531              		.loc 1 73 0
 532 001e F979     		ldrb	r1, [r7, #7]	@ zero_extendqisi2
 533 0020 BA79     		ldrb	r2, [r7, #6]	@ zero_extendqisi2
 534 0022 07F10F03 		add	r3, r7, #15
 535 0026 0846     		mov	r0, r1
 536 0028 1146     		mov	r1, r2
 537 002a 1A46     		mov	r2, r3
 538 002c FFF7FEFF 		bl	I2CReadByte
  74:..\i2cFunctions.c **** 	b = (value != 0) ? (b | (1 << bitNum)) : (b & ~(1 << bitNum));
 539              		.loc 1 74 0
 540 0030 3B79     		ldrb	r3, [r7, #4]	@ zero_extendqisi2
 541 0032 002B     		cmp	r3, #0
 542 0034 0AD0     		beq	.L13
 543              		.loc 1 74 0 is_stmt 0 discriminator 1
 544 0036 7B79     		ldrb	r3, [r7, #5]	@ zero_extendqisi2
 545 0038 0122     		movs	r2, #1
 546 003a 02FA03F3 		lsl	r3, r2, r3
 547 003e DAB2     		uxtb	r2, r3
 548 0040 FB7B     		ldrb	r3, [r7, #15]	@ zero_extendqisi2
 549 0042 DBB2     		uxtb	r3, r3
 550 0044 1343     		orrs	r3, r3, r2
 551 0046 DBB2     		uxtb	r3, r3
ARM GAS  C:\Users\gding\AppData\Local\Temp\ccfMr269.s 			page 12


 552 0048 DBB2     		uxtb	r3, r3
 553 004a 0BE0     		b	.L14
 554              	.L13:
 555              		.loc 1 74 0 discriminator 2
 556 004c 7B79     		ldrb	r3, [r7, #5]	@ zero_extendqisi2
 557 004e 0122     		movs	r2, #1
 558 0050 02FA03F3 		lsl	r3, r2, r3
 559 0054 DBB2     		uxtb	r3, r3
 560 0056 DB43     		mvns	r3, r3
 561 0058 DAB2     		uxtb	r2, r3
 562 005a FB7B     		ldrb	r3, [r7, #15]	@ zero_extendqisi2
 563 005c DBB2     		uxtb	r3, r3
 564 005e 1340     		ands	r3, r3, r2
 565 0060 DBB2     		uxtb	r3, r3
 566 0062 DBB2     		uxtb	r3, r3
 567              	.L14:
 568              		.loc 1 74 0 discriminator 4
 569 0064 FB73     		strb	r3, [r7, #15]
  75:..\i2cFunctions.c **** 	I2CWriteByte(devAddr, regAddr, b);
 570              		.loc 1 75 0 is_stmt 1 discriminator 4
 571 0066 FB7B     		ldrb	r3, [r7, #15]	@ zero_extendqisi2
 572 0068 F979     		ldrb	r1, [r7, #7]	@ zero_extendqisi2
 573 006a BA79     		ldrb	r2, [r7, #6]	@ zero_extendqisi2
 574 006c 0846     		mov	r0, r1
 575 006e 1146     		mov	r1, r2
 576 0070 1A46     		mov	r2, r3
 577 0072 FFF7FEFF 		bl	I2CWriteByte
  76:..\i2cFunctions.c **** }
 578              		.loc 1 76 0 discriminator 4
 579 0076 1437     		adds	r7, r7, #20
 580              		.cfi_def_cfa_offset 12
 581 0078 BD46     		mov	sp, r7
 582              		.cfi_def_cfa_register 13
 583              		@ sp needed
 584 007a 90BD     		pop	{r4, r7, pc}
 585              		.cfi_endproc
 586              	.LFE70:
 587              		.size	I2CWriteBit, .-I2CWriteBit
 588              		.section	.text.I2CWriteWords,"ax",%progbits
 589              		.align	2
 590              		.global	I2CWriteWords
 591              		.thumb
 592              		.thumb_func
 593              		.type	I2CWriteWords, %function
 594              	I2CWriteWords:
 595              	.LFB71:
  77:..\i2cFunctions.c **** 
  78:..\i2cFunctions.c **** void I2CWriteWords(uint8_t devAddr, uint8_t regAddr, uint8_t length, uint16_t *value) {
 596              		.loc 1 78 0
 597              		.cfi_startproc
 598              		@ args = 0, pretend = 0, frame = 16
 599              		@ frame_needed = 1, uses_anonymous_args = 0
 600 0000 80B5     		push	{r7, lr}
 601              		.cfi_def_cfa_offset 8
 602              		.cfi_offset 7, -8
 603              		.cfi_offset 14, -4
 604 0002 84B0     		sub	sp, sp, #16
ARM GAS  C:\Users\gding\AppData\Local\Temp\ccfMr269.s 			page 13


 605              		.cfi_def_cfa_offset 24
 606 0004 00AF     		add	r7, sp, #0
 607              		.cfi_def_cfa_register 7
 608 0006 3B60     		str	r3, [r7]
 609 0008 0346     		mov	r3, r0
 610 000a FB71     		strb	r3, [r7, #7]
 611 000c 0B46     		mov	r3, r1
 612 000e BB71     		strb	r3, [r7, #6]
 613 0010 1346     		mov	r3, r2
 614 0012 7B71     		strb	r3, [r7, #5]
  79:..\i2cFunctions.c **** 	uint8_t i=0;
 615              		.loc 1 79 0
 616 0014 0023     		movs	r3, #0
 617 0016 FB73     		strb	r3, [r7, #15]
  80:..\i2cFunctions.c **** 	I2C_Master_MasterSendStart(devAddr, I2C_Master_WRITE_XFER_MODE);
 618              		.loc 1 80 0
 619 0018 FB79     		ldrb	r3, [r7, #7]	@ zero_extendqisi2
 620 001a 1846     		mov	r0, r3
 621 001c 0021     		movs	r1, #0
 622 001e FFF7FEFF 		bl	I2C_Master_MasterSendStart
  81:..\i2cFunctions.c **** 	I2C_Master_MasterWriteByte(regAddr);
 623              		.loc 1 81 0
 624 0022 BB79     		ldrb	r3, [r7, #6]	@ zero_extendqisi2
 625 0024 1846     		mov	r0, r3
 626 0026 FFF7FEFF 		bl	I2C_Master_MasterWriteByte
  82:..\i2cFunctions.c **** 	while (i++ < length) {
 627              		.loc 1 82 0
 628 002a 0FE0     		b	.L16
 629              	.L17:
  83:..\i2cFunctions.c **** 		I2C_Master_MasterWriteByte(((uint8_t)*value) >> 8);
 630              		.loc 1 83 0
 631 002c 3B68     		ldr	r3, [r7]
 632 002e 1B88     		ldrh	r3, [r3]
 633 0030 DBB2     		uxtb	r3, r3
 634 0032 1B12     		asrs	r3, r3, #8
 635 0034 DBB2     		uxtb	r3, r3
 636 0036 1846     		mov	r0, r3
 637 0038 FFF7FEFF 		bl	I2C_Master_MasterWriteByte
  84:..\i2cFunctions.c **** 		I2C_Master_MasterWriteByte((uint8_t)*value++);
 638              		.loc 1 84 0
 639 003c 3B68     		ldr	r3, [r7]
 640 003e 9A1C     		adds	r2, r3, #2
 641 0040 3A60     		str	r2, [r7]
 642 0042 1B88     		ldrh	r3, [r3]
 643 0044 DBB2     		uxtb	r3, r3
 644 0046 1846     		mov	r0, r3
 645 0048 FFF7FEFF 		bl	I2C_Master_MasterWriteByte
 646              	.L16:
  82:..\i2cFunctions.c **** 	while (i++ < length) {
 647              		.loc 1 82 0
 648 004c FB7B     		ldrb	r3, [r7, #15]	@ zero_extendqisi2
 649 004e 5A1C     		adds	r2, r3, #1
 650 0050 FA73     		strb	r2, [r7, #15]
 651 0052 7A79     		ldrb	r2, [r7, #5]	@ zero_extendqisi2
 652 0054 9A42     		cmp	r2, r3
 653 0056 E9D8     		bhi	.L17
  85:..\i2cFunctions.c **** 	}
ARM GAS  C:\Users\gding\AppData\Local\Temp\ccfMr269.s 			page 14


  86:..\i2cFunctions.c **** 	I2C_Master_MasterSendStop();		
 654              		.loc 1 86 0
 655 0058 FFF7FEFF 		bl	I2C_Master_MasterSendStop
  87:..\i2cFunctions.c **** }
 656              		.loc 1 87 0
 657 005c 1037     		adds	r7, r7, #16
 658              		.cfi_def_cfa_offset 8
 659 005e BD46     		mov	sp, r7
 660              		.cfi_def_cfa_register 13
 661              		@ sp needed
 662 0060 80BD     		pop	{r7, pc}
 663              		.cfi_endproc
 664              	.LFE71:
 665              		.size	I2CWriteWords, .-I2CWriteWords
 666 0062 00BF     		.section	.text.I2CWriteWord,"ax",%progbits
 667              		.align	2
 668              		.global	I2CWriteWord
 669              		.thumb
 670              		.thumb_func
 671              		.type	I2CWriteWord, %function
 672              	I2CWriteWord:
 673              	.LFB72:
  88:..\i2cFunctions.c **** 
  89:..\i2cFunctions.c **** void I2CWriteWord(uint8_t devAddr, uint8_t regAddr, uint16_t value) {
 674              		.loc 1 89 0
 675              		.cfi_startproc
 676              		@ args = 0, pretend = 0, frame = 8
 677              		@ frame_needed = 1, uses_anonymous_args = 0
 678 0000 80B5     		push	{r7, lr}
 679              		.cfi_def_cfa_offset 8
 680              		.cfi_offset 7, -8
 681              		.cfi_offset 14, -4
 682 0002 82B0     		sub	sp, sp, #8
 683              		.cfi_def_cfa_offset 16
 684 0004 00AF     		add	r7, sp, #0
 685              		.cfi_def_cfa_register 7
 686 0006 0346     		mov	r3, r0
 687 0008 FB71     		strb	r3, [r7, #7]
 688 000a 0B46     		mov	r3, r1
 689 000c BB71     		strb	r3, [r7, #6]
 690 000e 1346     		mov	r3, r2	@ movhi
 691 0010 BB80     		strh	r3, [r7, #4]	@ movhi
  90:..\i2cFunctions.c **** 	I2CWriteWords(devAddr, regAddr, 1, &value);
 692              		.loc 1 90 0
 693 0012 F979     		ldrb	r1, [r7, #7]	@ zero_extendqisi2
 694 0014 BA79     		ldrb	r2, [r7, #6]	@ zero_extendqisi2
 695 0016 3B1D     		adds	r3, r7, #4
 696 0018 0846     		mov	r0, r1
 697 001a 1146     		mov	r1, r2
 698 001c 0122     		movs	r2, #1
 699 001e FFF7FEFF 		bl	I2CWriteWords
  91:..\i2cFunctions.c **** }...
 700              		.loc 1 91 0
 701 0022 0837     		adds	r7, r7, #8
 702              		.cfi_def_cfa_offset 8
 703 0024 BD46     		mov	sp, r7
 704              		.cfi_def_cfa_register 13
ARM GAS  C:\Users\gding\AppData\Local\Temp\ccfMr269.s 			page 15


 705              		@ sp needed
 706 0026 80BD     		pop	{r7, pc}
 707              		.cfi_endproc
 708              	.LFE72:
 709              		.size	I2CWriteWord, .-I2CWriteWord
 710              		.text
 711              	.Letext0:
 712              		.file 2 "c:\\program files (x86)\\cypress\\psoc creator\\4.0\\psoc creator\\import\\gnu\\arm\\4.9.
 713              		.file 3 "c:\\program files (x86)\\cypress\\psoc creator\\4.0\\psoc creator\\import\\gnu\\arm\\4.9.
 714              		.file 4 "Generated_Source\\PSoC5/core_cm3.h"