ARM GAS  C:\Users\jwgutter\AppData\Local\Temp\cc29UnI2.s 			page 1


   1              		.syntax unified
   2              		.cpu cortex-m3
   3              		.fpu softvfp
   4              		.eabi_attribute 20, 1
   5              		.eabi_attribute 21, 1
   6              		.eabi_attribute 23, 3
   7              		.eabi_attribute 24, 1
   8              		.eabi_attribute 25, 1
   9              		.eabi_attribute 26, 1
  10              		.eabi_attribute 30, 6
  11              		.eabi_attribute 34, 1
  12              		.eabi_attribute 18, 4
  13              		.thumb
  14              		.file	"LiquidCrystal_I2C.c"
  15              		.text
  16              	.Ltext0:
  17              		.cfi_sections	.debug_frame
  18              		.comm	_addr,1,1
  19              		.comm	_displayfunction,1,1
  20              		.comm	_displaycontrol,1,1
  21              		.comm	_displaymode,1,1
  22              		.comm	_cols,1,1
  23              		.comm	_rows,1,1
  24              		.comm	_charsize,1,1
  25              		.comm	_backlightval,1,1
  26              		.section	.text.LiquidCrystal_I2C_init,"ax",%progbits
  27              		.align	2
  28              		.global	LiquidCrystal_I2C_init
  29              		.thumb
  30              		.thumb_func
  31              		.type	LiquidCrystal_I2C_init, %function
  32              	LiquidCrystal_I2C_init:
  33              	.LFB63:
  34              		.file 1 "LiquidCrystal_I2C.c"
   1:LiquidCrystal_I2C.c **** #include "LiquidCrystal_I2C.h"
   2:LiquidCrystal_I2C.c **** 
   3:LiquidCrystal_I2C.c **** 
   4:LiquidCrystal_I2C.c **** //#include "LiquidCrystal_I2C.h"/Portado para PSoC por Šarūnas Straigis
   5:LiquidCrystal_I2C.c **** //http://www.element14.com/community/people/sarunaszx/blog
   6:LiquidCrystal_I2C.c **** //Portado y modificado para PSoC 4 y PSoC 5LP por Brayan Bermudez y Carlos Diaz
   7:LiquidCrystal_I2C.c **** //http://digitalprojectsudistrital.blogspot.com.co/
   8:LiquidCrystal_I2C.c **** 
   9:LiquidCrystal_I2C.c **** 
  10:LiquidCrystal_I2C.c **** 
  11:LiquidCrystal_I2C.c **** // When the display powers up, it is configured as follows:
  12:LiquidCrystal_I2C.c **** //
  13:LiquidCrystal_I2C.c **** // 1. Display clear
  14:LiquidCrystal_I2C.c **** // 2. Function set: 
  15:LiquidCrystal_I2C.c **** //    DL = 1; 8-bit interface data 
  16:LiquidCrystal_I2C.c **** //    N = 0; 1-line display 
  17:LiquidCrystal_I2C.c **** //    F = 0; 5x8 dot character font 
  18:LiquidCrystal_I2C.c **** // 3. Display on/off control: 
  19:LiquidCrystal_I2C.c **** //    D = 0; Display off 
  20:LiquidCrystal_I2C.c **** //    C = 0; Cursor off 
  21:LiquidCrystal_I2C.c **** //    B = 0; Blinking off 
  22:LiquidCrystal_I2C.c **** // 4. Entry mode set: 
  23:LiquidCrystal_I2C.c **** //    I/D = 1; Increment by 1
ARM GAS  C:\Users\jwgutter\AppData\Local\Temp\cc29UnI2.s 			page 2


  24:LiquidCrystal_I2C.c **** //    S = 0; No shift 
  25:LiquidCrystal_I2C.c **** //
  26:LiquidCrystal_I2C.c **** // Note, however, that resetting the Arduino doesn't reset the LCD, so we
  27:LiquidCrystal_I2C.c **** // can't assume that its in that state when a sketch starts (and the
  28:LiquidCrystal_I2C.c **** // LiquidCrystal constructor is called).
  29:LiquidCrystal_I2C.c **** 
  30:LiquidCrystal_I2C.c **** uint8_t _addr;
  31:LiquidCrystal_I2C.c **** uint8_t _displayfunction;
  32:LiquidCrystal_I2C.c **** uint8_t _displaycontrol;
  33:LiquidCrystal_I2C.c **** uint8_t _displaymode;
  34:LiquidCrystal_I2C.c **** uint8_t _cols;
  35:LiquidCrystal_I2C.c **** uint8_t _rows;
  36:LiquidCrystal_I2C.c **** uint8_t _charsize;
  37:LiquidCrystal_I2C.c **** uint8_t _backlightval;
  38:LiquidCrystal_I2C.c **** 
  39:LiquidCrystal_I2C.c **** void LiquidCrystal_I2C_init(uint8_t lcd_addr, uint8_t lcd_cols, uint8_t lcd_rows, uint8_t charsize)
  40:LiquidCrystal_I2C.c **** {
  35              		.loc 1 40 0
  36              		.cfi_startproc
  37              		@ args = 0, pretend = 0, frame = 8
  38              		@ frame_needed = 1, uses_anonymous_args = 0
  39              		@ link register save eliminated.
  40 0000 90B4     		push	{r4, r7}
  41              		.cfi_def_cfa_offset 8
  42              		.cfi_offset 4, -8
  43              		.cfi_offset 7, -4
  44 0002 82B0     		sub	sp, sp, #8
  45              		.cfi_def_cfa_offset 16
  46 0004 00AF     		add	r7, sp, #0
  47              		.cfi_def_cfa_register 7
  48 0006 0446     		mov	r4, r0
  49 0008 0846     		mov	r0, r1
  50 000a 1146     		mov	r1, r2
  51 000c 1A46     		mov	r2, r3
  52 000e 2346     		mov	r3, r4
  53 0010 FB71     		strb	r3, [r7, #7]
  54 0012 0346     		mov	r3, r0
  55 0014 BB71     		strb	r3, [r7, #6]
  56 0016 0B46     		mov	r3, r1
  57 0018 7B71     		strb	r3, [r7, #5]
  58 001a 1346     		mov	r3, r2
  59 001c 3B71     		strb	r3, [r7, #4]
  41:LiquidCrystal_I2C.c **** 	_addr = lcd_addr;
  60              		.loc 1 41 0
  61 001e 0A4A     		ldr	r2, .L3
  62 0020 FB79     		ldrb	r3, [r7, #7]
  63 0022 1370     		strb	r3, [r2]
  42:LiquidCrystal_I2C.c **** 	_cols = lcd_cols;
  64              		.loc 1 42 0
  65 0024 094A     		ldr	r2, .L3+4
  66 0026 BB79     		ldrb	r3, [r7, #6]
  67 0028 1370     		strb	r3, [r2]
  43:LiquidCrystal_I2C.c **** 	_rows = lcd_rows;
  68              		.loc 1 43 0
  69 002a 094A     		ldr	r2, .L3+8
  70 002c 7B79     		ldrb	r3, [r7, #5]
  71 002e 1370     		strb	r3, [r2]
ARM GAS  C:\Users\jwgutter\AppData\Local\Temp\cc29UnI2.s 			page 3


  44:LiquidCrystal_I2C.c **** 	_charsize = charsize;
  72              		.loc 1 44 0
  73 0030 084A     		ldr	r2, .L3+12
  74 0032 3B79     		ldrb	r3, [r7, #4]
  75 0034 1370     		strb	r3, [r2]
  45:LiquidCrystal_I2C.c **** 	_backlightval = LCD_BACKLIGHT;
  76              		.loc 1 45 0
  77 0036 084B     		ldr	r3, .L3+16
  78 0038 0822     		movs	r2, #8
  79 003a 1A70     		strb	r2, [r3]
  46:LiquidCrystal_I2C.c ****     
  47:LiquidCrystal_I2C.c ****     return;
  80              		.loc 1 47 0
  81 003c 00BF     		nop
  48:LiquidCrystal_I2C.c **** }
  82              		.loc 1 48 0
  83 003e 0837     		adds	r7, r7, #8
  84              		.cfi_def_cfa_offset 8
  85 0040 BD46     		mov	sp, r7
  86              		.cfi_def_cfa_register 13
  87              		@ sp needed
  88 0042 90BC     		pop	{r4, r7}
  89              		.cfi_restore 7
  90              		.cfi_restore 4
  91              		.cfi_def_cfa_offset 0
  92 0044 7047     		bx	lr
  93              	.L4:
  94 0046 00BF     		.align	2
  95              	.L3:
  96 0048 00000000 		.word	_addr
  97 004c 00000000 		.word	_cols
  98 0050 00000000 		.word	_rows
  99 0054 00000000 		.word	_charsize
 100 0058 00000000 		.word	_backlightval
 101              		.cfi_endproc
 102              	.LFE63:
 103              		.size	LiquidCrystal_I2C_init, .-LiquidCrystal_I2C_init
 104              		.section	.text.begin,"ax",%progbits
 105              		.align	2
 106              		.global	begin
 107              		.thumb
 108              		.thumb_func
 109              		.type	begin, %function
 110              	begin:
 111              	.LFB64:
  49:LiquidCrystal_I2C.c **** 
  50:LiquidCrystal_I2C.c **** void begin(void){
 112              		.loc 1 50 0
 113              		.cfi_startproc
 114              		@ args = 0, pretend = 0, frame = 0
 115              		@ frame_needed = 1, uses_anonymous_args = 0
 116 0000 80B5     		push	{r7, lr}
 117              		.cfi_def_cfa_offset 8
 118              		.cfi_offset 7, -8
 119              		.cfi_offset 14, -4
 120 0002 00AF     		add	r7, sp, #0
 121              		.cfi_def_cfa_register 7
ARM GAS  C:\Users\jwgutter\AppData\Local\Temp\cc29UnI2.s 			page 4


  51:LiquidCrystal_I2C.c ****   
  52:LiquidCrystal_I2C.c **** 	_displayfunction = LCD_4BITMODE | LCD_1LINE | LCD_5x8DOTS;
 122              		.loc 1 52 0
 123 0004 2E4B     		ldr	r3, .L9
 124 0006 0022     		movs	r2, #0
 125 0008 1A70     		strb	r2, [r3]
  53:LiquidCrystal_I2C.c **** 
  54:LiquidCrystal_I2C.c **** 	if (_rows > 1) {
 126              		.loc 1 54 0
 127 000a 2E4B     		ldr	r3, .L9+4
 128 000c 1B78     		ldrb	r3, [r3]	@ zero_extendqisi2
 129 000e 012B     		cmp	r3, #1
 130 0010 06D9     		bls	.L6
  55:LiquidCrystal_I2C.c **** 		_displayfunction |= LCD_2LINE;
 131              		.loc 1 55 0
 132 0012 2B4B     		ldr	r3, .L9
 133 0014 1B78     		ldrb	r3, [r3]	@ zero_extendqisi2
 134 0016 43F00803 		orr	r3, r3, #8
 135 001a DAB2     		uxtb	r2, r3
 136 001c 284B     		ldr	r3, .L9
 137 001e 1A70     		strb	r2, [r3]
 138              	.L6:
  56:LiquidCrystal_I2C.c **** 	}
  57:LiquidCrystal_I2C.c **** 
  58:LiquidCrystal_I2C.c **** 	// for some 1 line displays you can select a 10 pixel high font
  59:LiquidCrystal_I2C.c **** 	if ((_charsize != 0) && (_rows == 1)) {
 139              		.loc 1 59 0
 140 0020 294B     		ldr	r3, .L9+8
 141 0022 1B78     		ldrb	r3, [r3]	@ zero_extendqisi2
 142 0024 002B     		cmp	r3, #0
 143 0026 0AD0     		beq	.L7
 144              		.loc 1 59 0 is_stmt 0 discriminator 1
 145 0028 264B     		ldr	r3, .L9+4
 146 002a 1B78     		ldrb	r3, [r3]	@ zero_extendqisi2
 147 002c 012B     		cmp	r3, #1
 148 002e 06D1     		bne	.L7
  60:LiquidCrystal_I2C.c **** 		_displayfunction |= LCD_5x10DOTS;
 149              		.loc 1 60 0 is_stmt 1
 150 0030 234B     		ldr	r3, .L9
 151 0032 1B78     		ldrb	r3, [r3]	@ zero_extendqisi2
 152 0034 43F00403 		orr	r3, r3, #4
 153 0038 DAB2     		uxtb	r2, r3
 154 003a 214B     		ldr	r3, .L9
 155 003c 1A70     		strb	r2, [r3]
 156              	.L7:
  61:LiquidCrystal_I2C.c **** 	}
  62:LiquidCrystal_I2C.c **** 
  63:LiquidCrystal_I2C.c **** 	// SEE PAGE 45/46 FOR INITIALIZATION SPECIFICATION!
  64:LiquidCrystal_I2C.c **** 	// according to datasheet, we need at least 40ms after power rises above 2.7V
  65:LiquidCrystal_I2C.c **** 	// before sending commands. Arduino can turn on way befer 4.5V so we'll wait 50
  66:LiquidCrystal_I2C.c **** 	CyDelay(50); 
 157              		.loc 1 66 0
 158 003e 3220     		movs	r0, #50
 159 0040 FFF7FEFF 		bl	CyDelay
  67:LiquidCrystal_I2C.c **** 
  68:LiquidCrystal_I2C.c **** 	// Now we pull both RS and R/W low to begin commands
  69:LiquidCrystal_I2C.c **** 	expanderWrite(_backlightval);	// reset expanderand turn backlight off (Bit 8 =1)
ARM GAS  C:\Users\jwgutter\AppData\Local\Temp\cc29UnI2.s 			page 5


 160              		.loc 1 69 0
 161 0044 214B     		ldr	r3, .L9+12
 162 0046 1B78     		ldrb	r3, [r3]	@ zero_extendqisi2
 163 0048 1846     		mov	r0, r3
 164 004a FFF7FEFF 		bl	expanderWrite
  70:LiquidCrystal_I2C.c **** 	CyDelay(1000);
 165              		.loc 1 70 0
 166 004e 4FF47A70 		mov	r0, #1000
 167 0052 FFF7FEFF 		bl	CyDelay
  71:LiquidCrystal_I2C.c **** 
  72:LiquidCrystal_I2C.c **** 	//put the LCD into 4 bit mode
  73:LiquidCrystal_I2C.c **** 	// this is according to the hitachi HD44780 datasheet
  74:LiquidCrystal_I2C.c **** 	// figure 24, pg 46
  75:LiquidCrystal_I2C.c **** 
  76:LiquidCrystal_I2C.c **** 	// we start in 8bit mode, try to set 4 bit mode
  77:LiquidCrystal_I2C.c **** 	write4bits(0x03 << 4);
 168              		.loc 1 77 0
 169 0056 3020     		movs	r0, #48
 170 0058 FFF7FEFF 		bl	write4bits
  78:LiquidCrystal_I2C.c **** 	CyDelayUs(4500); // wait min 4.1ms
 171              		.loc 1 78 0
 172 005c 41F29410 		movw	r0, #4500
 173 0060 FFF7FEFF 		bl	CyDelayUs
  79:LiquidCrystal_I2C.c **** 
  80:LiquidCrystal_I2C.c **** 	// second try
  81:LiquidCrystal_I2C.c **** 	write4bits(0x03 << 4);
 174              		.loc 1 81 0
 175 0064 3020     		movs	r0, #48
 176 0066 FFF7FEFF 		bl	write4bits
  82:LiquidCrystal_I2C.c **** 	CyDelayUs(4500); // wait min 4.1ms
 177              		.loc 1 82 0
 178 006a 41F29410 		movw	r0, #4500
 179 006e FFF7FEFF 		bl	CyDelayUs
  83:LiquidCrystal_I2C.c **** 
  84:LiquidCrystal_I2C.c **** 	// third go!
  85:LiquidCrystal_I2C.c **** 	write4bits(0x03 << 4); 
 180              		.loc 1 85 0
 181 0072 3020     		movs	r0, #48
 182 0074 FFF7FEFF 		bl	write4bits
  86:LiquidCrystal_I2C.c **** 	CyDelayUs(150);
 183              		.loc 1 86 0
 184 0078 9620     		movs	r0, #150
 185 007a FFF7FEFF 		bl	CyDelayUs
  87:LiquidCrystal_I2C.c **** 
  88:LiquidCrystal_I2C.c **** 	// finally, set to 4-bit interface
  89:LiquidCrystal_I2C.c **** 	write4bits(0x02 << 4); 
 186              		.loc 1 89 0
 187 007e 2020     		movs	r0, #32
 188 0080 FFF7FEFF 		bl	write4bits
  90:LiquidCrystal_I2C.c **** 
  91:LiquidCrystal_I2C.c **** 	// set # lines, font size, etc.
  92:LiquidCrystal_I2C.c **** 	command(LCD_FUNCTIONSET | _displayfunction);  
 189              		.loc 1 92 0
 190 0084 0E4B     		ldr	r3, .L9
 191 0086 1B78     		ldrb	r3, [r3]	@ zero_extendqisi2
 192 0088 43F02003 		orr	r3, r3, #32
 193 008c DBB2     		uxtb	r3, r3
ARM GAS  C:\Users\jwgutter\AppData\Local\Temp\cc29UnI2.s 			page 6


 194 008e 1846     		mov	r0, r3
 195 0090 FFF7FEFF 		bl	command
  93:LiquidCrystal_I2C.c **** 	
  94:LiquidCrystal_I2C.c **** 	// turn the display on with no cursor or blinking default
  95:LiquidCrystal_I2C.c **** 	_displaycontrol = LCD_DISPLAYON | LCD_CURSOROFF | LCD_BLINKOFF;
 196              		.loc 1 95 0
 197 0094 0E4B     		ldr	r3, .L9+16
 198 0096 0422     		movs	r2, #4
 199 0098 1A70     		strb	r2, [r3]
  96:LiquidCrystal_I2C.c **** 	display();
 200              		.loc 1 96 0
 201 009a FFF7FEFF 		bl	display
  97:LiquidCrystal_I2C.c **** 	
  98:LiquidCrystal_I2C.c **** 	// clear it off
  99:LiquidCrystal_I2C.c **** 	clear();
 202              		.loc 1 99 0
 203 009e FFF7FEFF 		bl	clear
 100:LiquidCrystal_I2C.c **** 	
 101:LiquidCrystal_I2C.c **** 	// Initialize to default text direction (for roman languages)
 102:LiquidCrystal_I2C.c **** 	_displaymode = LCD_ENTRYLEFT | LCD_ENTRYSHIFTDECREMENT;
 204              		.loc 1 102 0
 205 00a2 0C4B     		ldr	r3, .L9+20
 206 00a4 0222     		movs	r2, #2
 207 00a6 1A70     		strb	r2, [r3]
 103:LiquidCrystal_I2C.c **** 	
 104:LiquidCrystal_I2C.c **** 	// set the entry mode
 105:LiquidCrystal_I2C.c **** 	command(LCD_ENTRYMODESET | _displaymode);
 208              		.loc 1 105 0
 209 00a8 0A4B     		ldr	r3, .L9+20
 210 00aa 1B78     		ldrb	r3, [r3]	@ zero_extendqisi2
 211 00ac 43F00403 		orr	r3, r3, #4
 212 00b0 DBB2     		uxtb	r3, r3
 213 00b2 1846     		mov	r0, r3
 214 00b4 FFF7FEFF 		bl	command
 106:LiquidCrystal_I2C.c **** 	
 107:LiquidCrystal_I2C.c **** 	home();
 215              		.loc 1 107 0
 216 00b8 FFF7FEFF 		bl	home
 108:LiquidCrystal_I2C.c ****     
 109:LiquidCrystal_I2C.c ****     return;
 217              		.loc 1 109 0
 218 00bc 00BF     		nop
 110:LiquidCrystal_I2C.c **** }
 219              		.loc 1 110 0
 220 00be 80BD     		pop	{r7, pc}
 221              	.L10:
 222              		.align	2
 223              	.L9:
 224 00c0 00000000 		.word	_displayfunction
 225 00c4 00000000 		.word	_rows
 226 00c8 00000000 		.word	_charsize
 227 00cc 00000000 		.word	_backlightval
 228 00d0 00000000 		.word	_displaycontrol
 229 00d4 00000000 		.word	_displaymode
 230              		.cfi_endproc
 231              	.LFE64:
 232              		.size	begin, .-begin
ARM GAS  C:\Users\jwgutter\AppData\Local\Temp\cc29UnI2.s 			page 7


 233              		.section	.text.clear,"ax",%progbits
 234              		.align	2
 235              		.global	clear
 236              		.thumb
 237              		.thumb_func
 238              		.type	clear, %function
 239              	clear:
 240              	.LFB65:
 111:LiquidCrystal_I2C.c **** 
 112:LiquidCrystal_I2C.c **** /********** high level commands, for the user! */
 113:LiquidCrystal_I2C.c **** void clear(void){
 241              		.loc 1 113 0
 242              		.cfi_startproc
 243              		@ args = 0, pretend = 0, frame = 0
 244              		@ frame_needed = 1, uses_anonymous_args = 0
 245 0000 80B5     		push	{r7, lr}
 246              		.cfi_def_cfa_offset 8
 247              		.cfi_offset 7, -8
 248              		.cfi_offset 14, -4
 249 0002 00AF     		add	r7, sp, #0
 250              		.cfi_def_cfa_register 7
 114:LiquidCrystal_I2C.c ****     
 115:LiquidCrystal_I2C.c **** 	command(LCD_CLEARDISPLAY);// clear display, set cursor position to zero
 251              		.loc 1 115 0
 252 0004 0120     		movs	r0, #1
 253 0006 FFF7FEFF 		bl	command
 116:LiquidCrystal_I2C.c **** 	CyDelay(2);  // this command takes a long time!
 254              		.loc 1 116 0
 255 000a 0220     		movs	r0, #2
 256 000c FFF7FEFF 		bl	CyDelay
 117:LiquidCrystal_I2C.c ****     
 118:LiquidCrystal_I2C.c ****     return;
 257              		.loc 1 118 0
 258 0010 00BF     		nop
 119:LiquidCrystal_I2C.c **** }
 259              		.loc 1 119 0
 260 0012 80BD     		pop	{r7, pc}
 261              		.cfi_endproc
 262              	.LFE65:
 263              		.size	clear, .-clear
 264              		.section	.text.home,"ax",%progbits
 265              		.align	2
 266              		.global	home
 267              		.thumb
 268              		.thumb_func
 269              		.type	home, %function
 270              	home:
 271              	.LFB66:
 120:LiquidCrystal_I2C.c **** 
 121:LiquidCrystal_I2C.c **** void home(void){
 272              		.loc 1 121 0
 273              		.cfi_startproc
 274              		@ args = 0, pretend = 0, frame = 0
 275              		@ frame_needed = 1, uses_anonymous_args = 0
 276 0000 80B5     		push	{r7, lr}
 277              		.cfi_def_cfa_offset 8
 278              		.cfi_offset 7, -8
ARM GAS  C:\Users\jwgutter\AppData\Local\Temp\cc29UnI2.s 			page 8


 279              		.cfi_offset 14, -4
 280 0002 00AF     		add	r7, sp, #0
 281              		.cfi_def_cfa_register 7
 122:LiquidCrystal_I2C.c **** 	
 123:LiquidCrystal_I2C.c ****     command(LCD_RETURNHOME);  // set cursor position to zero
 282              		.loc 1 123 0
 283 0004 0220     		movs	r0, #2
 284 0006 FFF7FEFF 		bl	command
 124:LiquidCrystal_I2C.c **** 	CyDelay(2);  // this command takes a long time!
 285              		.loc 1 124 0
 286 000a 0220     		movs	r0, #2
 287 000c FFF7FEFF 		bl	CyDelay
 125:LiquidCrystal_I2C.c ****     
 126:LiquidCrystal_I2C.c ****     return;
 288              		.loc 1 126 0
 289 0010 00BF     		nop
 127:LiquidCrystal_I2C.c **** }
 290              		.loc 1 127 0
 291 0012 80BD     		pop	{r7, pc}
 292              		.cfi_endproc
 293              	.LFE66:
 294              		.size	home, .-home
 295              		.section	.rodata
 296              		.align	2
 297              	.LC0:
 298 0000 00000000 		.word	0
 299 0004 40000000 		.word	64
 300 0008 14000000 		.word	20
 301 000c 54000000 		.word	84
 302              		.section	.text.setCursor,"ax",%progbits
 303              		.align	2
 304              		.global	setCursor
 305              		.thumb
 306              		.thumb_func
 307              		.type	setCursor, %function
 308              	setCursor:
 309              	.LFB67:
 128:LiquidCrystal_I2C.c **** 
 129:LiquidCrystal_I2C.c **** void setCursor(uint8_t col, uint8_t row){
 310              		.loc 1 129 0
 311              		.cfi_startproc
 312              		@ args = 0, pretend = 0, frame = 24
 313              		@ frame_needed = 1, uses_anonymous_args = 0
 314 0000 90B5     		push	{r4, r7, lr}
 315              		.cfi_def_cfa_offset 12
 316              		.cfi_offset 4, -12
 317              		.cfi_offset 7, -8
 318              		.cfi_offset 14, -4
 319 0002 87B0     		sub	sp, sp, #28
 320              		.cfi_def_cfa_offset 40
 321 0004 00AF     		add	r7, sp, #0
 322              		.cfi_def_cfa_register 7
 323 0006 0346     		mov	r3, r0
 324 0008 0A46     		mov	r2, r1
 325 000a FB71     		strb	r3, [r7, #7]
 326 000c 1346     		mov	r3, r2
 327 000e BB71     		strb	r3, [r7, #6]
ARM GAS  C:\Users\jwgutter\AppData\Local\Temp\cc29UnI2.s 			page 9


 130:LiquidCrystal_I2C.c ****     
 131:LiquidCrystal_I2C.c **** 	int row_offsets[] = { 0x00, 0x40, 0x14, 0x54 };
 328              		.loc 1 131 0
 329 0010 124B     		ldr	r3, .L18
 330 0012 07F10804 		add	r4, r7, #8
 331 0016 0FCB     		ldmia	r3, {r0, r1, r2, r3}
 332 0018 84E80F00 		stmia	r4, {r0, r1, r2, r3}
 132:LiquidCrystal_I2C.c **** 	if (row > _rows) {
 333              		.loc 1 132 0
 334 001c 104B     		ldr	r3, .L18+4
 335 001e 1B78     		ldrb	r3, [r3]	@ zero_extendqisi2
 336 0020 BA79     		ldrb	r2, [r7, #6]	@ zero_extendqisi2
 337 0022 9A42     		cmp	r2, r3
 338 0024 03D9     		bls	.L16
 133:LiquidCrystal_I2C.c **** 		row = _rows-1;    // we count rows starting w/0
 339              		.loc 1 133 0
 340 0026 0E4B     		ldr	r3, .L18+4
 341 0028 1B78     		ldrb	r3, [r3]	@ zero_extendqisi2
 342 002a 013B     		subs	r3, r3, #1
 343 002c BB71     		strb	r3, [r7, #6]
 344              	.L16:
 134:LiquidCrystal_I2C.c **** 	}
 135:LiquidCrystal_I2C.c **** 	command(LCD_SETDDRAMADDR | (col + row_offsets[row]));
 345              		.loc 1 135 0
 346 002e BB79     		ldrb	r3, [r7, #6]	@ zero_extendqisi2
 347 0030 9B00     		lsls	r3, r3, #2
 348 0032 07F11802 		add	r2, r7, #24
 349 0036 1344     		add	r3, r3, r2
 350 0038 53F8103C 		ldr	r3, [r3, #-16]
 351 003c DAB2     		uxtb	r2, r3
 352 003e FB79     		ldrb	r3, [r7, #7]
 353 0040 1344     		add	r3, r3, r2
 354 0042 DBB2     		uxtb	r3, r3
 355 0044 DBB2     		uxtb	r3, r3
 356 0046 63F07F03 		orn	r3, r3, #127
 357 004a DBB2     		uxtb	r3, r3
 358 004c DBB2     		uxtb	r3, r3
 359 004e 1846     		mov	r0, r3
 360 0050 FFF7FEFF 		bl	command
 136:LiquidCrystal_I2C.c ****     
 137:LiquidCrystal_I2C.c ****     return;
 361              		.loc 1 137 0
 362 0054 00BF     		nop
 138:LiquidCrystal_I2C.c **** }
 363              		.loc 1 138 0
 364 0056 1C37     		adds	r7, r7, #28
 365              		.cfi_def_cfa_offset 12
 366 0058 BD46     		mov	sp, r7
 367              		.cfi_def_cfa_register 13
 368              		@ sp needed
 369 005a 90BD     		pop	{r4, r7, pc}
 370              	.L19:
 371              		.align	2
 372              	.L18:
 373 005c 00000000 		.word	.LC0
 374 0060 00000000 		.word	_rows
 375              		.cfi_endproc
ARM GAS  C:\Users\jwgutter\AppData\Local\Temp\cc29UnI2.s 			page 10


 376              	.LFE67:
 377              		.size	setCursor, .-setCursor
 378              		.section	.text.noDisplay,"ax",%progbits
 379              		.align	2
 380              		.global	noDisplay
 381              		.thumb
 382              		.thumb_func
 383              		.type	noDisplay, %function
 384              	noDisplay:
 385              	.LFB68:
 139:LiquidCrystal_I2C.c **** 
 140:LiquidCrystal_I2C.c **** // Turn the display on/off (quickly)
 141:LiquidCrystal_I2C.c **** void noDisplay(void){
 386              		.loc 1 141 0
 387              		.cfi_startproc
 388              		@ args = 0, pretend = 0, frame = 0
 389              		@ frame_needed = 1, uses_anonymous_args = 0
 390 0000 80B5     		push	{r7, lr}
 391              		.cfi_def_cfa_offset 8
 392              		.cfi_offset 7, -8
 393              		.cfi_offset 14, -4
 394 0002 00AF     		add	r7, sp, #0
 395              		.cfi_def_cfa_register 7
 142:LiquidCrystal_I2C.c **** 	
 143:LiquidCrystal_I2C.c ****     _displaycontrol &= ~LCD_DISPLAYON;
 396              		.loc 1 143 0
 397 0004 084B     		ldr	r3, .L22
 398 0006 1B78     		ldrb	r3, [r3]	@ zero_extendqisi2
 399 0008 23F00403 		bic	r3, r3, #4
 400 000c DAB2     		uxtb	r2, r3
 401 000e 064B     		ldr	r3, .L22
 402 0010 1A70     		strb	r2, [r3]
 144:LiquidCrystal_I2C.c **** 	command(LCD_DISPLAYCONTROL | _displaycontrol);
 403              		.loc 1 144 0
 404 0012 054B     		ldr	r3, .L22
 405 0014 1B78     		ldrb	r3, [r3]	@ zero_extendqisi2
 406 0016 43F00803 		orr	r3, r3, #8
 407 001a DBB2     		uxtb	r3, r3
 408 001c 1846     		mov	r0, r3
 409 001e FFF7FEFF 		bl	command
 145:LiquidCrystal_I2C.c ****     
 146:LiquidCrystal_I2C.c ****     return;
 410              		.loc 1 146 0
 411 0022 00BF     		nop
 147:LiquidCrystal_I2C.c **** }
 412              		.loc 1 147 0
 413 0024 80BD     		pop	{r7, pc}
 414              	.L23:
 415 0026 00BF     		.align	2
 416              	.L22:
 417 0028 00000000 		.word	_displaycontrol
 418              		.cfi_endproc
 419              	.LFE68:
 420              		.size	noDisplay, .-noDisplay
 421              		.section	.text.display,"ax",%progbits
 422              		.align	2
 423              		.global	display
ARM GAS  C:\Users\jwgutter\AppData\Local\Temp\cc29UnI2.s 			page 11


 424              		.thumb
 425              		.thumb_func
 426              		.type	display, %function
 427              	display:
 428              	.LFB69:
 148:LiquidCrystal_I2C.c **** void display(void){
 429              		.loc 1 148 0
 430              		.cfi_startproc
 431              		@ args = 0, pretend = 0, frame = 0
 432              		@ frame_needed = 1, uses_anonymous_args = 0
 433 0000 80B5     		push	{r7, lr}
 434              		.cfi_def_cfa_offset 8
 435              		.cfi_offset 7, -8
 436              		.cfi_offset 14, -4
 437 0002 00AF     		add	r7, sp, #0
 438              		.cfi_def_cfa_register 7
 149:LiquidCrystal_I2C.c ****     
 150:LiquidCrystal_I2C.c **** 	_displaycontrol |= LCD_DISPLAYON;
 439              		.loc 1 150 0
 440 0004 084B     		ldr	r3, .L26
 441 0006 1B78     		ldrb	r3, [r3]	@ zero_extendqisi2
 442 0008 43F00403 		orr	r3, r3, #4
 443 000c DAB2     		uxtb	r2, r3
 444 000e 064B     		ldr	r3, .L26
 445 0010 1A70     		strb	r2, [r3]
 151:LiquidCrystal_I2C.c **** 	command(LCD_DISPLAYCONTROL | _displaycontrol);
 446              		.loc 1 151 0
 447 0012 054B     		ldr	r3, .L26
 448 0014 1B78     		ldrb	r3, [r3]	@ zero_extendqisi2
 449 0016 43F00803 		orr	r3, r3, #8
 450 001a DBB2     		uxtb	r3, r3
 451 001c 1846     		mov	r0, r3
 452 001e FFF7FEFF 		bl	command
 152:LiquidCrystal_I2C.c ****     
 153:LiquidCrystal_I2C.c ****     return;
 453              		.loc 1 153 0
 454 0022 00BF     		nop
 154:LiquidCrystal_I2C.c **** }
 455              		.loc 1 154 0
 456 0024 80BD     		pop	{r7, pc}
 457              	.L27:
 458 0026 00BF     		.align	2
 459              	.L26:
 460 0028 00000000 		.word	_displaycontrol
 461              		.cfi_endproc
 462              	.LFE69:
 463              		.size	display, .-display
 464              		.section	.text.noCursor,"ax",%progbits
 465              		.align	2
 466              		.global	noCursor
 467              		.thumb
 468              		.thumb_func
 469              		.type	noCursor, %function
 470              	noCursor:
 471              	.LFB70:
 155:LiquidCrystal_I2C.c **** 
 156:LiquidCrystal_I2C.c **** // Turns the underline cursor on/off
ARM GAS  C:\Users\jwgutter\AppData\Local\Temp\cc29UnI2.s 			page 12


 157:LiquidCrystal_I2C.c **** void noCursor(void){
 472              		.loc 1 157 0
 473              		.cfi_startproc
 474              		@ args = 0, pretend = 0, frame = 0
 475              		@ frame_needed = 1, uses_anonymous_args = 0
 476 0000 80B5     		push	{r7, lr}
 477              		.cfi_def_cfa_offset 8
 478              		.cfi_offset 7, -8
 479              		.cfi_offset 14, -4
 480 0002 00AF     		add	r7, sp, #0
 481              		.cfi_def_cfa_register 7
 158:LiquidCrystal_I2C.c **** 	
 159:LiquidCrystal_I2C.c ****     _displaycontrol &= ~LCD_CURSORON;
 482              		.loc 1 159 0
 483 0004 084B     		ldr	r3, .L30
 484 0006 1B78     		ldrb	r3, [r3]	@ zero_extendqisi2
 485 0008 23F00203 		bic	r3, r3, #2
 486 000c DAB2     		uxtb	r2, r3
 487 000e 064B     		ldr	r3, .L30
 488 0010 1A70     		strb	r2, [r3]
 160:LiquidCrystal_I2C.c **** 	command(LCD_DISPLAYCONTROL | _displaycontrol);
 489              		.loc 1 160 0
 490 0012 054B     		ldr	r3, .L30
 491 0014 1B78     		ldrb	r3, [r3]	@ zero_extendqisi2
 492 0016 43F00803 		orr	r3, r3, #8
 493 001a DBB2     		uxtb	r3, r3
 494 001c 1846     		mov	r0, r3
 495 001e FFF7FEFF 		bl	command
 161:LiquidCrystal_I2C.c ****     
 162:LiquidCrystal_I2C.c ****     return;
 496              		.loc 1 162 0
 497 0022 00BF     		nop
 163:LiquidCrystal_I2C.c **** }
 498              		.loc 1 163 0
 499 0024 80BD     		pop	{r7, pc}
 500              	.L31:
 501 0026 00BF     		.align	2
 502              	.L30:
 503 0028 00000000 		.word	_displaycontrol
 504              		.cfi_endproc
 505              	.LFE70:
 506              		.size	noCursor, .-noCursor
 507              		.section	.text.cursor,"ax",%progbits
 508              		.align	2
 509              		.global	cursor
 510              		.thumb
 511              		.thumb_func
 512              		.type	cursor, %function
 513              	cursor:
 514              	.LFB71:
 164:LiquidCrystal_I2C.c **** void cursor(void){
 515              		.loc 1 164 0
 516              		.cfi_startproc
 517              		@ args = 0, pretend = 0, frame = 0
 518              		@ frame_needed = 1, uses_anonymous_args = 0
 519 0000 80B5     		push	{r7, lr}
 520              		.cfi_def_cfa_offset 8
ARM GAS  C:\Users\jwgutter\AppData\Local\Temp\cc29UnI2.s 			page 13


 521              		.cfi_offset 7, -8
 522              		.cfi_offset 14, -4
 523 0002 00AF     		add	r7, sp, #0
 524              		.cfi_def_cfa_register 7
 165:LiquidCrystal_I2C.c **** 	
 166:LiquidCrystal_I2C.c ****     _displaycontrol |= LCD_CURSORON;
 525              		.loc 1 166 0
 526 0004 084B     		ldr	r3, .L34
 527 0006 1B78     		ldrb	r3, [r3]	@ zero_extendqisi2
 528 0008 43F00203 		orr	r3, r3, #2
 529 000c DAB2     		uxtb	r2, r3
 530 000e 064B     		ldr	r3, .L34
 531 0010 1A70     		strb	r2, [r3]
 167:LiquidCrystal_I2C.c **** 	command(LCD_DISPLAYCONTROL | _displaycontrol);
 532              		.loc 1 167 0
 533 0012 054B     		ldr	r3, .L34
 534 0014 1B78     		ldrb	r3, [r3]	@ zero_extendqisi2
 535 0016 43F00803 		orr	r3, r3, #8
 536 001a DBB2     		uxtb	r3, r3
 537 001c 1846     		mov	r0, r3
 538 001e FFF7FEFF 		bl	command
 168:LiquidCrystal_I2C.c ****     
 169:LiquidCrystal_I2C.c ****     return;
 539              		.loc 1 169 0
 540 0022 00BF     		nop
 170:LiquidCrystal_I2C.c **** }
 541              		.loc 1 170 0
 542 0024 80BD     		pop	{r7, pc}
 543              	.L35:
 544 0026 00BF     		.align	2
 545              	.L34:
 546 0028 00000000 		.word	_displaycontrol
 547              		.cfi_endproc
 548              	.LFE71:
 549              		.size	cursor, .-cursor
 550              		.section	.text.noBlink,"ax",%progbits
 551              		.align	2
 552              		.global	noBlink
 553              		.thumb
 554              		.thumb_func
 555              		.type	noBlink, %function
 556              	noBlink:
 557              	.LFB72:
 171:LiquidCrystal_I2C.c **** 
 172:LiquidCrystal_I2C.c **** // Turn on and off the blinking cursor
 173:LiquidCrystal_I2C.c **** void noBlink(void){
 558              		.loc 1 173 0
 559              		.cfi_startproc
 560              		@ args = 0, pretend = 0, frame = 0
 561              		@ frame_needed = 1, uses_anonymous_args = 0
 562 0000 80B5     		push	{r7, lr}
 563              		.cfi_def_cfa_offset 8
 564              		.cfi_offset 7, -8
 565              		.cfi_offset 14, -4
 566 0002 00AF     		add	r7, sp, #0
 567              		.cfi_def_cfa_register 7
 174:LiquidCrystal_I2C.c **** 	
ARM GAS  C:\Users\jwgutter\AppData\Local\Temp\cc29UnI2.s 			page 14


 175:LiquidCrystal_I2C.c ****     _displaycontrol &= ~LCD_BLINKON;
 568              		.loc 1 175 0
 569 0004 084B     		ldr	r3, .L38
 570 0006 1B78     		ldrb	r3, [r3]	@ zero_extendqisi2
 571 0008 23F00103 		bic	r3, r3, #1
 572 000c DAB2     		uxtb	r2, r3
 573 000e 064B     		ldr	r3, .L38
 574 0010 1A70     		strb	r2, [r3]
 176:LiquidCrystal_I2C.c **** 	command(LCD_DISPLAYCONTROL | _displaycontrol);
 575              		.loc 1 176 0
 576 0012 054B     		ldr	r3, .L38
 577 0014 1B78     		ldrb	r3, [r3]	@ zero_extendqisi2
 578 0016 43F00803 		orr	r3, r3, #8
 579 001a DBB2     		uxtb	r3, r3
 580 001c 1846     		mov	r0, r3
 581 001e FFF7FEFF 		bl	command
 177:LiquidCrystal_I2C.c ****     
 178:LiquidCrystal_I2C.c ****     return;
 582              		.loc 1 178 0
 583 0022 00BF     		nop
 179:LiquidCrystal_I2C.c **** }
 584              		.loc 1 179 0
 585 0024 80BD     		pop	{r7, pc}
 586              	.L39:
 587 0026 00BF     		.align	2
 588              	.L38:
 589 0028 00000000 		.word	_displaycontrol
 590              		.cfi_endproc
 591              	.LFE72:
 592              		.size	noBlink, .-noBlink
 593              		.section	.text.blink,"ax",%progbits
 594              		.align	2
 595              		.global	blink
 596              		.thumb
 597              		.thumb_func
 598              		.type	blink, %function
 599              	blink:
 600              	.LFB73:
 180:LiquidCrystal_I2C.c **** void blink(void){
 601              		.loc 1 180 0
 602              		.cfi_startproc
 603              		@ args = 0, pretend = 0, frame = 0
 604              		@ frame_needed = 1, uses_anonymous_args = 0
 605 0000 80B5     		push	{r7, lr}
 606              		.cfi_def_cfa_offset 8
 607              		.cfi_offset 7, -8
 608              		.cfi_offset 14, -4
 609 0002 00AF     		add	r7, sp, #0
 610              		.cfi_def_cfa_register 7
 181:LiquidCrystal_I2C.c ****     
 182:LiquidCrystal_I2C.c **** 	_displaycontrol |= LCD_BLINKON;
 611              		.loc 1 182 0
 612 0004 084B     		ldr	r3, .L42
 613 0006 1B78     		ldrb	r3, [r3]	@ zero_extendqisi2
 614 0008 43F00103 		orr	r3, r3, #1
 615 000c DAB2     		uxtb	r2, r3
 616 000e 064B     		ldr	r3, .L42
ARM GAS  C:\Users\jwgutter\AppData\Local\Temp\cc29UnI2.s 			page 15


 617 0010 1A70     		strb	r2, [r3]
 183:LiquidCrystal_I2C.c **** 	command(LCD_DISPLAYCONTROL | _displaycontrol);
 618              		.loc 1 183 0
 619 0012 054B     		ldr	r3, .L42
 620 0014 1B78     		ldrb	r3, [r3]	@ zero_extendqisi2
 621 0016 43F00803 		orr	r3, r3, #8
 622 001a DBB2     		uxtb	r3, r3
 623 001c 1846     		mov	r0, r3
 624 001e FFF7FEFF 		bl	command
 184:LiquidCrystal_I2C.c ****     
 185:LiquidCrystal_I2C.c ****     return;
 625              		.loc 1 185 0
 626 0022 00BF     		nop
 186:LiquidCrystal_I2C.c **** }
 627              		.loc 1 186 0
 628 0024 80BD     		pop	{r7, pc}
 629              	.L43:
 630 0026 00BF     		.align	2
 631              	.L42:
 632 0028 00000000 		.word	_displaycontrol
 633              		.cfi_endproc
 634              	.LFE73:
 635              		.size	blink, .-blink
 636              		.section	.text.scrollDisplayLeft,"ax",%progbits
 637              		.align	2
 638              		.global	scrollDisplayLeft
 639              		.thumb
 640              		.thumb_func
 641              		.type	scrollDisplayLeft, %function
 642              	scrollDisplayLeft:
 643              	.LFB74:
 187:LiquidCrystal_I2C.c **** 
 188:LiquidCrystal_I2C.c **** // These commands scroll the display without changing the RAM
 189:LiquidCrystal_I2C.c **** void scrollDisplayLeft(void){
 644              		.loc 1 189 0
 645              		.cfi_startproc
 646              		@ args = 0, pretend = 0, frame = 0
 647              		@ frame_needed = 1, uses_anonymous_args = 0
 648 0000 80B5     		push	{r7, lr}
 649              		.cfi_def_cfa_offset 8
 650              		.cfi_offset 7, -8
 651              		.cfi_offset 14, -4
 652 0002 00AF     		add	r7, sp, #0
 653              		.cfi_def_cfa_register 7
 190:LiquidCrystal_I2C.c ****     
 191:LiquidCrystal_I2C.c **** 	command(LCD_CURSORSHIFT | LCD_DISPLAYMOVE | LCD_MOVELEFT);
 654              		.loc 1 191 0
 655 0004 1820     		movs	r0, #24
 656 0006 FFF7FEFF 		bl	command
 192:LiquidCrystal_I2C.c ****     
 193:LiquidCrystal_I2C.c ****     return;
 657              		.loc 1 193 0
 658 000a 00BF     		nop
 194:LiquidCrystal_I2C.c **** }
 659              		.loc 1 194 0
 660 000c 80BD     		pop	{r7, pc}
 661              		.cfi_endproc
ARM GAS  C:\Users\jwgutter\AppData\Local\Temp\cc29UnI2.s 			page 16


 662              	.LFE74:
 663              		.size	scrollDisplayLeft, .-scrollDisplayLeft
 664 000e 00BF     		.section	.text.scrollDisplayRight,"ax",%progbits
 665              		.align	2
 666              		.global	scrollDisplayRight
 667              		.thumb
 668              		.thumb_func
 669              		.type	scrollDisplayRight, %function
 670              	scrollDisplayRight:
 671              	.LFB75:
 195:LiquidCrystal_I2C.c **** void scrollDisplayRight(void){
 672              		.loc 1 195 0
 673              		.cfi_startproc
 674              		@ args = 0, pretend = 0, frame = 0
 675              		@ frame_needed = 1, uses_anonymous_args = 0
 676 0000 80B5     		push	{r7, lr}
 677              		.cfi_def_cfa_offset 8
 678              		.cfi_offset 7, -8
 679              		.cfi_offset 14, -4
 680 0002 00AF     		add	r7, sp, #0
 681              		.cfi_def_cfa_register 7
 196:LiquidCrystal_I2C.c **** 	
 197:LiquidCrystal_I2C.c ****     command(LCD_CURSORSHIFT | LCD_DISPLAYMOVE | LCD_MOVERIGHT);
 682              		.loc 1 197 0
 683 0004 1C20     		movs	r0, #28
 684 0006 FFF7FEFF 		bl	command
 198:LiquidCrystal_I2C.c ****     
 199:LiquidCrystal_I2C.c ****     return;
 685              		.loc 1 199 0
 686 000a 00BF     		nop
 200:LiquidCrystal_I2C.c **** }
 687              		.loc 1 200 0
 688 000c 80BD     		pop	{r7, pc}
 689              		.cfi_endproc
 690              	.LFE75:
 691              		.size	scrollDisplayRight, .-scrollDisplayRight
 692 000e 00BF     		.section	.text.leftToRight,"ax",%progbits
 693              		.align	2
 694              		.global	leftToRight
 695              		.thumb
 696              		.thumb_func
 697              		.type	leftToRight, %function
 698              	leftToRight:
 699              	.LFB76:
 201:LiquidCrystal_I2C.c **** 
 202:LiquidCrystal_I2C.c **** // This is for text that flows Left to Right
 203:LiquidCrystal_I2C.c **** void leftToRight(void){
 700              		.loc 1 203 0
 701              		.cfi_startproc
 702              		@ args = 0, pretend = 0, frame = 0
 703              		@ frame_needed = 1, uses_anonymous_args = 0
 704 0000 80B5     		push	{r7, lr}
 705              		.cfi_def_cfa_offset 8
 706              		.cfi_offset 7, -8
 707              		.cfi_offset 14, -4
 708 0002 00AF     		add	r7, sp, #0
 709              		.cfi_def_cfa_register 7
ARM GAS  C:\Users\jwgutter\AppData\Local\Temp\cc29UnI2.s 			page 17


 204:LiquidCrystal_I2C.c ****     
 205:LiquidCrystal_I2C.c **** 	_displaymode |= LCD_ENTRYLEFT;
 710              		.loc 1 205 0
 711 0004 084B     		ldr	r3, .L50
 712 0006 1B78     		ldrb	r3, [r3]	@ zero_extendqisi2
 713 0008 43F00203 		orr	r3, r3, #2
 714 000c DAB2     		uxtb	r2, r3
 715 000e 064B     		ldr	r3, .L50
 716 0010 1A70     		strb	r2, [r3]
 206:LiquidCrystal_I2C.c **** 	command(LCD_ENTRYMODESET | _displaymode);
 717              		.loc 1 206 0
 718 0012 054B     		ldr	r3, .L50
 719 0014 1B78     		ldrb	r3, [r3]	@ zero_extendqisi2
 720 0016 43F00403 		orr	r3, r3, #4
 721 001a DBB2     		uxtb	r3, r3
 722 001c 1846     		mov	r0, r3
 723 001e FFF7FEFF 		bl	command
 207:LiquidCrystal_I2C.c ****     
 208:LiquidCrystal_I2C.c ****     return;
 724              		.loc 1 208 0
 725 0022 00BF     		nop
 209:LiquidCrystal_I2C.c **** }
 726              		.loc 1 209 0
 727 0024 80BD     		pop	{r7, pc}
 728              	.L51:
 729 0026 00BF     		.align	2
 730              	.L50:
 731 0028 00000000 		.word	_displaymode
 732              		.cfi_endproc
 733              	.LFE76:
 734              		.size	leftToRight, .-leftToRight
 735              		.section	.text.rightToLeft,"ax",%progbits
 736              		.align	2
 737              		.global	rightToLeft
 738              		.thumb
 739              		.thumb_func
 740              		.type	rightToLeft, %function
 741              	rightToLeft:
 742              	.LFB77:
 210:LiquidCrystal_I2C.c **** 
 211:LiquidCrystal_I2C.c **** // This is for text that flows Right to Left
 212:LiquidCrystal_I2C.c **** void rightToLeft(void){
 743              		.loc 1 212 0
 744              		.cfi_startproc
 745              		@ args = 0, pretend = 0, frame = 0
 746              		@ frame_needed = 1, uses_anonymous_args = 0
 747 0000 80B5     		push	{r7, lr}
 748              		.cfi_def_cfa_offset 8
 749              		.cfi_offset 7, -8
 750              		.cfi_offset 14, -4
 751 0002 00AF     		add	r7, sp, #0
 752              		.cfi_def_cfa_register 7
 213:LiquidCrystal_I2C.c ****     
 214:LiquidCrystal_I2C.c **** 	_displaymode &= ~LCD_ENTRYLEFT;
 753              		.loc 1 214 0
 754 0004 084B     		ldr	r3, .L54
 755 0006 1B78     		ldrb	r3, [r3]	@ zero_extendqisi2
ARM GAS  C:\Users\jwgutter\AppData\Local\Temp\cc29UnI2.s 			page 18


 756 0008 23F00203 		bic	r3, r3, #2
 757 000c DAB2     		uxtb	r2, r3
 758 000e 064B     		ldr	r3, .L54
 759 0010 1A70     		strb	r2, [r3]
 215:LiquidCrystal_I2C.c **** 	command(LCD_ENTRYMODESET | _displaymode);
 760              		.loc 1 215 0
 761 0012 054B     		ldr	r3, .L54
 762 0014 1B78     		ldrb	r3, [r3]	@ zero_extendqisi2
 763 0016 43F00403 		orr	r3, r3, #4
 764 001a DBB2     		uxtb	r3, r3
 765 001c 1846     		mov	r0, r3
 766 001e FFF7FEFF 		bl	command
 216:LiquidCrystal_I2C.c ****     
 217:LiquidCrystal_I2C.c ****     return;
 767              		.loc 1 217 0
 768 0022 00BF     		nop
 218:LiquidCrystal_I2C.c **** }
 769              		.loc 1 218 0
 770 0024 80BD     		pop	{r7, pc}
 771              	.L55:
 772 0026 00BF     		.align	2
 773              	.L54:
 774 0028 00000000 		.word	_displaymode
 775              		.cfi_endproc
 776              	.LFE77:
 777              		.size	rightToLeft, .-rightToLeft
 778              		.section	.text.autoscroll,"ax",%progbits
 779              		.align	2
 780              		.global	autoscroll
 781              		.thumb
 782              		.thumb_func
 783              		.type	autoscroll, %function
 784              	autoscroll:
 785              	.LFB78:
 219:LiquidCrystal_I2C.c **** 
 220:LiquidCrystal_I2C.c **** // This will 'right justify' text from the cursor
 221:LiquidCrystal_I2C.c **** void autoscroll(void){
 786              		.loc 1 221 0
 787              		.cfi_startproc
 788              		@ args = 0, pretend = 0, frame = 0
 789              		@ frame_needed = 1, uses_anonymous_args = 0
 790 0000 80B5     		push	{r7, lr}
 791              		.cfi_def_cfa_offset 8
 792              		.cfi_offset 7, -8
 793              		.cfi_offset 14, -4
 794 0002 00AF     		add	r7, sp, #0
 795              		.cfi_def_cfa_register 7
 222:LiquidCrystal_I2C.c **** 	
 223:LiquidCrystal_I2C.c ****     _displaymode |= LCD_ENTRYSHIFTINCREMENT;
 796              		.loc 1 223 0
 797 0004 084B     		ldr	r3, .L58
 798 0006 1B78     		ldrb	r3, [r3]	@ zero_extendqisi2
 799 0008 43F00103 		orr	r3, r3, #1
 800 000c DAB2     		uxtb	r2, r3
 801 000e 064B     		ldr	r3, .L58
 802 0010 1A70     		strb	r2, [r3]
 224:LiquidCrystal_I2C.c **** 	command(LCD_ENTRYMODESET | _displaymode);
ARM GAS  C:\Users\jwgutter\AppData\Local\Temp\cc29UnI2.s 			page 19


 803              		.loc 1 224 0
 804 0012 054B     		ldr	r3, .L58
 805 0014 1B78     		ldrb	r3, [r3]	@ zero_extendqisi2
 806 0016 43F00403 		orr	r3, r3, #4
 807 001a DBB2     		uxtb	r3, r3
 808 001c 1846     		mov	r0, r3
 809 001e FFF7FEFF 		bl	command
 225:LiquidCrystal_I2C.c ****     
 226:LiquidCrystal_I2C.c ****     return;
 810              		.loc 1 226 0
 811 0022 00BF     		nop
 227:LiquidCrystal_I2C.c **** }
 812              		.loc 1 227 0
 813 0024 80BD     		pop	{r7, pc}
 814              	.L59:
 815 0026 00BF     		.align	2
 816              	.L58:
 817 0028 00000000 		.word	_displaymode
 818              		.cfi_endproc
 819              	.LFE78:
 820              		.size	autoscroll, .-autoscroll
 821              		.section	.text.noAutoscroll,"ax",%progbits
 822              		.align	2
 823              		.global	noAutoscroll
 824              		.thumb
 825              		.thumb_func
 826              		.type	noAutoscroll, %function
 827              	noAutoscroll:
 828              	.LFB79:
 228:LiquidCrystal_I2C.c **** 
 229:LiquidCrystal_I2C.c **** // This will 'left justify' text from the cursor
 230:LiquidCrystal_I2C.c **** void noAutoscroll(void){
 829              		.loc 1 230 0
 830              		.cfi_startproc
 831              		@ args = 0, pretend = 0, frame = 0
 832              		@ frame_needed = 1, uses_anonymous_args = 0
 833 0000 80B5     		push	{r7, lr}
 834              		.cfi_def_cfa_offset 8
 835              		.cfi_offset 7, -8
 836              		.cfi_offset 14, -4
 837 0002 00AF     		add	r7, sp, #0
 838              		.cfi_def_cfa_register 7
 231:LiquidCrystal_I2C.c **** 	
 232:LiquidCrystal_I2C.c ****     _displaymode &= ~LCD_ENTRYSHIFTINCREMENT;
 839              		.loc 1 232 0
 840 0004 084B     		ldr	r3, .L62
 841 0006 1B78     		ldrb	r3, [r3]	@ zero_extendqisi2
 842 0008 23F00103 		bic	r3, r3, #1
 843 000c DAB2     		uxtb	r2, r3
 844 000e 064B     		ldr	r3, .L62
 845 0010 1A70     		strb	r2, [r3]
 233:LiquidCrystal_I2C.c **** 	command(LCD_ENTRYMODESET | _displaymode);
 846              		.loc 1 233 0
 847 0012 054B     		ldr	r3, .L62
 848 0014 1B78     		ldrb	r3, [r3]	@ zero_extendqisi2
 849 0016 43F00403 		orr	r3, r3, #4
 850 001a DBB2     		uxtb	r3, r3
ARM GAS  C:\Users\jwgutter\AppData\Local\Temp\cc29UnI2.s 			page 20


 851 001c 1846     		mov	r0, r3
 852 001e FFF7FEFF 		bl	command
 234:LiquidCrystal_I2C.c ****     
 235:LiquidCrystal_I2C.c ****     return;
 853              		.loc 1 235 0
 854 0022 00BF     		nop
 236:LiquidCrystal_I2C.c **** }
 855              		.loc 1 236 0
 856 0024 80BD     		pop	{r7, pc}
 857              	.L63:
 858 0026 00BF     		.align	2
 859              	.L62:
 860 0028 00000000 		.word	_displaymode
 861              		.cfi_endproc
 862              	.LFE79:
 863              		.size	noAutoscroll, .-noAutoscroll
 864              		.section	.text.createChar,"ax",%progbits
 865              		.align	2
 866              		.global	createChar
 867              		.thumb
 868              		.thumb_func
 869              		.type	createChar, %function
 870              	createChar:
 871              	.LFB80:
 237:LiquidCrystal_I2C.c **** 
 238:LiquidCrystal_I2C.c **** // Allows us to fill the first 8 CGRAM locations
 239:LiquidCrystal_I2C.c **** // with custom characters
 240:LiquidCrystal_I2C.c **** void createChar(uint8_t location, uint8_t charmap[]){ uint32_t i = 0;
 872              		.loc 1 240 0
 873              		.cfi_startproc
 874              		@ args = 0, pretend = 0, frame = 16
 875              		@ frame_needed = 1, uses_anonymous_args = 0
 876 0000 80B5     		push	{r7, lr}
 877              		.cfi_def_cfa_offset 8
 878              		.cfi_offset 7, -8
 879              		.cfi_offset 14, -4
 880 0002 84B0     		sub	sp, sp, #16
 881              		.cfi_def_cfa_offset 24
 882 0004 00AF     		add	r7, sp, #0
 883              		.cfi_def_cfa_register 7
 884 0006 0346     		mov	r3, r0
 885 0008 3960     		str	r1, [r7]
 886 000a FB71     		strb	r3, [r7, #7]
 887              		.loc 1 240 0
 888 000c 0023     		movs	r3, #0
 889 000e FB60     		str	r3, [r7, #12]
 241:LiquidCrystal_I2C.c **** 	
 242:LiquidCrystal_I2C.c ****     location &= 0x7; // we only have 8 locations 0-7
 890              		.loc 1 242 0
 891 0010 FB79     		ldrb	r3, [r7, #7]
 892 0012 03F00703 		and	r3, r3, #7
 893 0016 FB71     		strb	r3, [r7, #7]
 243:LiquidCrystal_I2C.c **** 	command(LCD_SETCGRAMADDR | (location << 3));
 894              		.loc 1 243 0
 895 0018 FB79     		ldrb	r3, [r7, #7]	@ zero_extendqisi2
 896 001a DB00     		lsls	r3, r3, #3
 897 001c DBB2     		uxtb	r3, r3
ARM GAS  C:\Users\jwgutter\AppData\Local\Temp\cc29UnI2.s 			page 21


 898 001e 43F04003 		orr	r3, r3, #64
 899 0022 DBB2     		uxtb	r3, r3
 900 0024 DBB2     		uxtb	r3, r3
 901 0026 1846     		mov	r0, r3
 902 0028 FFF7FEFF 		bl	command
 244:LiquidCrystal_I2C.c **** 	for (i=0; i<8; i++) {
 903              		.loc 1 244 0
 904 002c 0023     		movs	r3, #0
 905 002e FB60     		str	r3, [r7, #12]
 906 0030 09E0     		b	.L65
 907              	.L66:
 245:LiquidCrystal_I2C.c **** 		write(charmap[i]);
 908              		.loc 1 245 0 discriminator 3
 909 0032 3A68     		ldr	r2, [r7]
 910 0034 FB68     		ldr	r3, [r7, #12]
 911 0036 1344     		add	r3, r3, r2
 912 0038 1B78     		ldrb	r3, [r3]	@ zero_extendqisi2
 913 003a 1846     		mov	r0, r3
 914 003c FFF7FEFF 		bl	write
 244:LiquidCrystal_I2C.c **** 	for (i=0; i<8; i++) {
 915              		.loc 1 244 0 discriminator 3
 916 0040 FB68     		ldr	r3, [r7, #12]
 917 0042 0133     		adds	r3, r3, #1
 918 0044 FB60     		str	r3, [r7, #12]
 919              	.L65:
 244:LiquidCrystal_I2C.c **** 	for (i=0; i<8; i++) {
 920              		.loc 1 244 0 is_stmt 0 discriminator 1
 921 0046 FB68     		ldr	r3, [r7, #12]
 922 0048 072B     		cmp	r3, #7
 923 004a F2D9     		bls	.L66
 246:LiquidCrystal_I2C.c **** 	}
 247:LiquidCrystal_I2C.c ****     
 248:LiquidCrystal_I2C.c ****     return;
 924              		.loc 1 248 0 is_stmt 1
 925 004c 00BF     		nop
 249:LiquidCrystal_I2C.c **** }
 926              		.loc 1 249 0
 927 004e 1037     		adds	r7, r7, #16
 928              		.cfi_def_cfa_offset 8
 929 0050 BD46     		mov	sp, r7
 930              		.cfi_def_cfa_register 13
 931              		@ sp needed
 932 0052 80BD     		pop	{r7, pc}
 933              		.cfi_endproc
 934              	.LFE80:
 935              		.size	createChar, .-createChar
 936              		.section	.text.noBacklight,"ax",%progbits
 937              		.align	2
 938              		.global	noBacklight
 939              		.thumb
 940              		.thumb_func
 941              		.type	noBacklight, %function
 942              	noBacklight:
 943              	.LFB81:
 250:LiquidCrystal_I2C.c **** 
 251:LiquidCrystal_I2C.c **** // Turn the (optional) backlight off/on
 252:LiquidCrystal_I2C.c **** void noBacklight(void) {
ARM GAS  C:\Users\jwgutter\AppData\Local\Temp\cc29UnI2.s 			page 22


 944              		.loc 1 252 0
 945              		.cfi_startproc
 946              		@ args = 0, pretend = 0, frame = 0
 947              		@ frame_needed = 1, uses_anonymous_args = 0
 948 0000 80B5     		push	{r7, lr}
 949              		.cfi_def_cfa_offset 8
 950              		.cfi_offset 7, -8
 951              		.cfi_offset 14, -4
 952 0002 00AF     		add	r7, sp, #0
 953              		.cfi_def_cfa_register 7
 253:LiquidCrystal_I2C.c **** 	
 254:LiquidCrystal_I2C.c ****     _backlightval=LCD_NOBACKLIGHT;
 954              		.loc 1 254 0
 955 0004 034B     		ldr	r3, .L70
 956 0006 0022     		movs	r2, #0
 957 0008 1A70     		strb	r2, [r3]
 255:LiquidCrystal_I2C.c **** 	expanderWrite(0);
 958              		.loc 1 255 0
 959 000a 0020     		movs	r0, #0
 960 000c FFF7FEFF 		bl	expanderWrite
 256:LiquidCrystal_I2C.c ****     
 257:LiquidCrystal_I2C.c ****     return;
 961              		.loc 1 257 0
 962 0010 00BF     		nop
 258:LiquidCrystal_I2C.c **** }
 963              		.loc 1 258 0
 964 0012 80BD     		pop	{r7, pc}
 965              	.L71:
 966              		.align	2
 967              	.L70:
 968 0014 00000000 		.word	_backlightval
 969              		.cfi_endproc
 970              	.LFE81:
 971              		.size	noBacklight, .-noBacklight
 972              		.section	.text.backlight,"ax",%progbits
 973              		.align	2
 974              		.global	backlight
 975              		.thumb
 976              		.thumb_func
 977              		.type	backlight, %function
 978              	backlight:
 979              	.LFB82:
 259:LiquidCrystal_I2C.c **** 
 260:LiquidCrystal_I2C.c **** void backlight(void){
 980              		.loc 1 260 0
 981              		.cfi_startproc
 982              		@ args = 0, pretend = 0, frame = 0
 983              		@ frame_needed = 1, uses_anonymous_args = 0
 984 0000 80B5     		push	{r7, lr}
 985              		.cfi_def_cfa_offset 8
 986              		.cfi_offset 7, -8
 987              		.cfi_offset 14, -4
 988 0002 00AF     		add	r7, sp, #0
 989              		.cfi_def_cfa_register 7
 261:LiquidCrystal_I2C.c ****     
 262:LiquidCrystal_I2C.c **** 	_backlightval=LCD_BACKLIGHT;
 990              		.loc 1 262 0
ARM GAS  C:\Users\jwgutter\AppData\Local\Temp\cc29UnI2.s 			page 23


 991 0004 034B     		ldr	r3, .L74
 992 0006 0822     		movs	r2, #8
 993 0008 1A70     		strb	r2, [r3]
 263:LiquidCrystal_I2C.c **** 	expanderWrite(0);
 994              		.loc 1 263 0
 995 000a 0020     		movs	r0, #0
 996 000c FFF7FEFF 		bl	expanderWrite
 264:LiquidCrystal_I2C.c ****     
 265:LiquidCrystal_I2C.c ****     return;
 997              		.loc 1 265 0
 998 0010 00BF     		nop
 266:LiquidCrystal_I2C.c **** }
 999              		.loc 1 266 0
 1000 0012 80BD     		pop	{r7, pc}
 1001              	.L75:
 1002              		.align	2
 1003              	.L74:
 1004 0014 00000000 		.word	_backlightval
 1005              		.cfi_endproc
 1006              	.LFE82:
 1007              		.size	backlight, .-backlight
 1008              		.section	.text.command,"ax",%progbits
 1009              		.align	2
 1010              		.global	command
 1011              		.thumb
 1012              		.thumb_func
 1013              		.type	command, %function
 1014              	command:
 1015              	.LFB83:
 267:LiquidCrystal_I2C.c **** 
 268:LiquidCrystal_I2C.c **** /*********** mid level commands, for sending data/cmds */
 269:LiquidCrystal_I2C.c **** 
 270:LiquidCrystal_I2C.c **** void command(uint8_t value){
 1016              		.loc 1 270 0
 1017              		.cfi_startproc
 1018              		@ args = 0, pretend = 0, frame = 8
 1019              		@ frame_needed = 1, uses_anonymous_args = 0
 1020 0000 80B5     		push	{r7, lr}
 1021              		.cfi_def_cfa_offset 8
 1022              		.cfi_offset 7, -8
 1023              		.cfi_offset 14, -4
 1024 0002 82B0     		sub	sp, sp, #8
 1025              		.cfi_def_cfa_offset 16
 1026 0004 00AF     		add	r7, sp, #0
 1027              		.cfi_def_cfa_register 7
 1028 0006 0346     		mov	r3, r0
 1029 0008 FB71     		strb	r3, [r7, #7]
 271:LiquidCrystal_I2C.c **** 	
 272:LiquidCrystal_I2C.c ****     send(value, 0);
 1030              		.loc 1 272 0
 1031 000a FB79     		ldrb	r3, [r7, #7]	@ zero_extendqisi2
 1032 000c 1846     		mov	r0, r3
 1033 000e 0021     		movs	r1, #0
 1034 0010 FFF7FEFF 		bl	send
 273:LiquidCrystal_I2C.c ****     
 274:LiquidCrystal_I2C.c ****     return;
 1035              		.loc 1 274 0
ARM GAS  C:\Users\jwgutter\AppData\Local\Temp\cc29UnI2.s 			page 24


 1036 0014 00BF     		nop
 275:LiquidCrystal_I2C.c **** }
 1037              		.loc 1 275 0
 1038 0016 0837     		adds	r7, r7, #8
 1039              		.cfi_def_cfa_offset 8
 1040 0018 BD46     		mov	sp, r7
 1041              		.cfi_def_cfa_register 13
 1042              		@ sp needed
 1043 001a 80BD     		pop	{r7, pc}
 1044              		.cfi_endproc
 1045              	.LFE83:
 1046              		.size	command, .-command
 1047              		.section	.text.write,"ax",%progbits
 1048              		.align	2
 1049              		.global	write
 1050              		.thumb
 1051              		.thumb_func
 1052              		.type	write, %function
 1053              	write:
 1054              	.LFB84:
 276:LiquidCrystal_I2C.c **** 
 277:LiquidCrystal_I2C.c ****  void write(uint8_t value){
 1055              		.loc 1 277 0
 1056              		.cfi_startproc
 1057              		@ args = 0, pretend = 0, frame = 8
 1058              		@ frame_needed = 1, uses_anonymous_args = 0
 1059 0000 80B5     		push	{r7, lr}
 1060              		.cfi_def_cfa_offset 8
 1061              		.cfi_offset 7, -8
 1062              		.cfi_offset 14, -4
 1063 0002 82B0     		sub	sp, sp, #8
 1064              		.cfi_def_cfa_offset 16
 1065 0004 00AF     		add	r7, sp, #0
 1066              		.cfi_def_cfa_register 7
 1067 0006 0346     		mov	r3, r0
 1068 0008 FB71     		strb	r3, [r7, #7]
 278:LiquidCrystal_I2C.c ****     
 279:LiquidCrystal_I2C.c **** 	send(value, Rs);
 1069              		.loc 1 279 0
 1070 000a FB79     		ldrb	r3, [r7, #7]	@ zero_extendqisi2
 1071 000c 1846     		mov	r0, r3
 1072 000e 0121     		movs	r1, #1
 1073 0010 FFF7FEFF 		bl	send
 280:LiquidCrystal_I2C.c ****     
 281:LiquidCrystal_I2C.c ****     return;
 1074              		.loc 1 281 0
 1075 0014 00BF     		nop
 282:LiquidCrystal_I2C.c **** }
 1076              		.loc 1 282 0
 1077 0016 0837     		adds	r7, r7, #8
 1078              		.cfi_def_cfa_offset 8
 1079 0018 BD46     		mov	sp, r7
 1080              		.cfi_def_cfa_register 13
 1081              		@ sp needed
 1082 001a 80BD     		pop	{r7, pc}
 1083              		.cfi_endproc
 1084              	.LFE84:
ARM GAS  C:\Users\jwgutter\AppData\Local\Temp\cc29UnI2.s 			page 25


 1085              		.size	write, .-write
 1086              		.section	.text.send,"ax",%progbits
 1087              		.align	2
 1088              		.global	send
 1089              		.thumb
 1090              		.thumb_func
 1091              		.type	send, %function
 1092              	send:
 1093              	.LFB85:
 283:LiquidCrystal_I2C.c **** 
 284:LiquidCrystal_I2C.c **** 
 285:LiquidCrystal_I2C.c **** /************ low level data pushing commands **********/
 286:LiquidCrystal_I2C.c **** 
 287:LiquidCrystal_I2C.c **** // write either command or data
 288:LiquidCrystal_I2C.c **** void send(uint8_t value, uint8_t mode){
 1094              		.loc 1 288 0
 1095              		.cfi_startproc
 1096              		@ args = 0, pretend = 0, frame = 16
 1097              		@ frame_needed = 1, uses_anonymous_args = 0
 1098 0000 80B5     		push	{r7, lr}
 1099              		.cfi_def_cfa_offset 8
 1100              		.cfi_offset 7, -8
 1101              		.cfi_offset 14, -4
 1102 0002 84B0     		sub	sp, sp, #16
 1103              		.cfi_def_cfa_offset 24
 1104 0004 00AF     		add	r7, sp, #0
 1105              		.cfi_def_cfa_register 7
 1106 0006 0346     		mov	r3, r0
 1107 0008 0A46     		mov	r2, r1
 1108 000a FB71     		strb	r3, [r7, #7]
 1109 000c 1346     		mov	r3, r2
 1110 000e BB71     		strb	r3, [r7, #6]
 289:LiquidCrystal_I2C.c ****     
 290:LiquidCrystal_I2C.c **** 	uint8_t highnib=value&0xf0;
 1111              		.loc 1 290 0
 1112 0010 FB79     		ldrb	r3, [r7, #7]
 1113 0012 23F00F03 		bic	r3, r3, #15
 1114 0016 FB73     		strb	r3, [r7, #15]
 291:LiquidCrystal_I2C.c **** 	uint8_t lownib=(value<<4)&0xf0;
 1115              		.loc 1 291 0
 1116 0018 FB79     		ldrb	r3, [r7, #7]	@ zero_extendqisi2
 1117 001a 1B01     		lsls	r3, r3, #4
 1118 001c BB73     		strb	r3, [r7, #14]
 292:LiquidCrystal_I2C.c **** 	write4bits((highnib)|mode);
 1119              		.loc 1 292 0
 1120 001e FA7B     		ldrb	r2, [r7, #15]
 1121 0020 BB79     		ldrb	r3, [r7, #6]
 1122 0022 1343     		orrs	r3, r3, r2
 1123 0024 DBB2     		uxtb	r3, r3
 1124 0026 1846     		mov	r0, r3
 1125 0028 FFF7FEFF 		bl	write4bits
 293:LiquidCrystal_I2C.c **** 	write4bits((lownib)|mode); 
 1126              		.loc 1 293 0
 1127 002c BA7B     		ldrb	r2, [r7, #14]
 1128 002e BB79     		ldrb	r3, [r7, #6]
 1129 0030 1343     		orrs	r3, r3, r2
 1130 0032 DBB2     		uxtb	r3, r3
ARM GAS  C:\Users\jwgutter\AppData\Local\Temp\cc29UnI2.s 			page 26


 1131 0034 1846     		mov	r0, r3
 1132 0036 FFF7FEFF 		bl	write4bits
 294:LiquidCrystal_I2C.c ****     
 295:LiquidCrystal_I2C.c ****     return;
 1133              		.loc 1 295 0
 1134 003a 00BF     		nop
 296:LiquidCrystal_I2C.c **** }
 1135              		.loc 1 296 0
 1136 003c 1037     		adds	r7, r7, #16
 1137              		.cfi_def_cfa_offset 8
 1138 003e BD46     		mov	sp, r7
 1139              		.cfi_def_cfa_register 13
 1140              		@ sp needed
 1141 0040 80BD     		pop	{r7, pc}
 1142              		.cfi_endproc
 1143              	.LFE85:
 1144              		.size	send, .-send
 1145 0042 00BF     		.section	.text.write4bits,"ax",%progbits
 1146              		.align	2
 1147              		.global	write4bits
 1148              		.thumb
 1149              		.thumb_func
 1150              		.type	write4bits, %function
 1151              	write4bits:
 1152              	.LFB86:
 297:LiquidCrystal_I2C.c **** 
 298:LiquidCrystal_I2C.c **** void write4bits(uint8_t value) {
 1153              		.loc 1 298 0
 1154              		.cfi_startproc
 1155              		@ args = 0, pretend = 0, frame = 8
 1156              		@ frame_needed = 1, uses_anonymous_args = 0
 1157 0000 80B5     		push	{r7, lr}
 1158              		.cfi_def_cfa_offset 8
 1159              		.cfi_offset 7, -8
 1160              		.cfi_offset 14, -4
 1161 0002 82B0     		sub	sp, sp, #8
 1162              		.cfi_def_cfa_offset 16
 1163 0004 00AF     		add	r7, sp, #0
 1164              		.cfi_def_cfa_register 7
 1165 0006 0346     		mov	r3, r0
 1166 0008 FB71     		strb	r3, [r7, #7]
 299:LiquidCrystal_I2C.c ****     
 300:LiquidCrystal_I2C.c **** 	expanderWrite(value);
 1167              		.loc 1 300 0
 1168 000a FB79     		ldrb	r3, [r7, #7]	@ zero_extendqisi2
 1169 000c 1846     		mov	r0, r3
 1170 000e FFF7FEFF 		bl	expanderWrite
 301:LiquidCrystal_I2C.c **** 	pulseEnable(value);
 1171              		.loc 1 301 0
 1172 0012 FB79     		ldrb	r3, [r7, #7]	@ zero_extendqisi2
 1173 0014 1846     		mov	r0, r3
 1174 0016 FFF7FEFF 		bl	pulseEnable
 302:LiquidCrystal_I2C.c ****     
 303:LiquidCrystal_I2C.c ****     return;
 1175              		.loc 1 303 0
 1176 001a 00BF     		nop
 304:LiquidCrystal_I2C.c **** }
ARM GAS  C:\Users\jwgutter\AppData\Local\Temp\cc29UnI2.s 			page 27


 1177              		.loc 1 304 0
 1178 001c 0837     		adds	r7, r7, #8
 1179              		.cfi_def_cfa_offset 8
 1180 001e BD46     		mov	sp, r7
 1181              		.cfi_def_cfa_register 13
 1182              		@ sp needed
 1183 0020 80BD     		pop	{r7, pc}
 1184              		.cfi_endproc
 1185              	.LFE86:
 1186              		.size	write4bits, .-write4bits
 1187 0022 00BF     		.section	.text.expanderWrite,"ax",%progbits
 1188              		.align	2
 1189              		.global	expanderWrite
 1190              		.thumb
 1191              		.thumb_func
 1192              		.type	expanderWrite, %function
 1193              	expanderWrite:
 1194              	.LFB87:
 305:LiquidCrystal_I2C.c **** 
 306:LiquidCrystal_I2C.c **** void expanderWrite(uint8_t _data){     
 1195              		.loc 1 306 0
 1196              		.cfi_startproc
 1197              		@ args = 0, pretend = 0, frame = 8
 1198              		@ frame_needed = 1, uses_anonymous_args = 0
 1199 0000 80B5     		push	{r7, lr}
 1200              		.cfi_def_cfa_offset 8
 1201              		.cfi_offset 7, -8
 1202              		.cfi_offset 14, -4
 1203 0002 82B0     		sub	sp, sp, #8
 1204              		.cfi_def_cfa_offset 16
 1205 0004 00AF     		add	r7, sp, #0
 1206              		.cfi_def_cfa_register 7
 1207 0006 0346     		mov	r3, r0
 1208 0008 FB71     		strb	r3, [r7, #7]
 307:LiquidCrystal_I2C.c ****     
 308:LiquidCrystal_I2C.c **** 	I2C_M_write_byte(_addr,_data | _backlightval);	   
 1209              		.loc 1 308 0
 1210 000a 074B     		ldr	r3, .L86
 1211 000c 1978     		ldrb	r1, [r3]	@ zero_extendqisi2
 1212 000e 074B     		ldr	r3, .L86+4
 1213 0010 1A78     		ldrb	r2, [r3]	@ zero_extendqisi2
 1214 0012 FB79     		ldrb	r3, [r7, #7]
 1215 0014 1343     		orrs	r3, r3, r2
 1216 0016 DBB2     		uxtb	r3, r3
 1217 0018 0846     		mov	r0, r1
 1218 001a 1946     		mov	r1, r3
 1219 001c FFF7FEFF 		bl	I2C_M_write_byte
 309:LiquidCrystal_I2C.c ****     
 310:LiquidCrystal_I2C.c ****     return;
 1220              		.loc 1 310 0
 1221 0020 00BF     		nop
 311:LiquidCrystal_I2C.c **** }
 1222              		.loc 1 311 0
 1223 0022 0837     		adds	r7, r7, #8
 1224              		.cfi_def_cfa_offset 8
 1225 0024 BD46     		mov	sp, r7
 1226              		.cfi_def_cfa_register 13
ARM GAS  C:\Users\jwgutter\AppData\Local\Temp\cc29UnI2.s 			page 28


 1227              		@ sp needed
 1228 0026 80BD     		pop	{r7, pc}
 1229              	.L87:
 1230              		.align	2
 1231              	.L86:
 1232 0028 00000000 		.word	_addr
 1233 002c 00000000 		.word	_backlightval
 1234              		.cfi_endproc
 1235              	.LFE87:
 1236              		.size	expanderWrite, .-expanderWrite
 1237              		.section	.text.pulseEnable,"ax",%progbits
 1238              		.align	2
 1239              		.global	pulseEnable
 1240              		.thumb
 1241              		.thumb_func
 1242              		.type	pulseEnable, %function
 1243              	pulseEnable:
 1244              	.LFB88:
 312:LiquidCrystal_I2C.c **** 
 313:LiquidCrystal_I2C.c **** void pulseEnable(uint8_t _data){
 1245              		.loc 1 313 0
 1246              		.cfi_startproc
 1247              		@ args = 0, pretend = 0, frame = 8
 1248              		@ frame_needed = 1, uses_anonymous_args = 0
 1249 0000 80B5     		push	{r7, lr}
 1250              		.cfi_def_cfa_offset 8
 1251              		.cfi_offset 7, -8
 1252              		.cfi_offset 14, -4
 1253 0002 82B0     		sub	sp, sp, #8
 1254              		.cfi_def_cfa_offset 16
 1255 0004 00AF     		add	r7, sp, #0
 1256              		.cfi_def_cfa_register 7
 1257 0006 0346     		mov	r3, r0
 1258 0008 FB71     		strb	r3, [r7, #7]
 314:LiquidCrystal_I2C.c ****     
 315:LiquidCrystal_I2C.c **** 	expanderWrite(_data | En);	// En high
 1259              		.loc 1 315 0
 1260 000a FB79     		ldrb	r3, [r7, #7]
 1261 000c 43F00403 		orr	r3, r3, #4
 1262 0010 DBB2     		uxtb	r3, r3
 1263 0012 1846     		mov	r0, r3
 1264 0014 FFF7FEFF 		bl	expanderWrite
 316:LiquidCrystal_I2C.c **** 	CyDelayUs(1);		// enable pulse must be >450ns
 1265              		.loc 1 316 0
 1266 0018 0120     		movs	r0, #1
 1267 001a FFF7FEFF 		bl	CyDelayUs
 317:LiquidCrystal_I2C.c **** 	expanderWrite(_data & ~En);	// En low
 1268              		.loc 1 317 0
 1269 001e FB79     		ldrb	r3, [r7, #7]
 1270 0020 23F00403 		bic	r3, r3, #4
 1271 0024 DBB2     		uxtb	r3, r3
 1272 0026 1846     		mov	r0, r3
 1273 0028 FFF7FEFF 		bl	expanderWrite
 318:LiquidCrystal_I2C.c **** 	CyDelayUs(50);		// commands need > 37us to settle
 1274              		.loc 1 318 0
 1275 002c 3220     		movs	r0, #50
 1276 002e FFF7FEFF 		bl	CyDelayUs
ARM GAS  C:\Users\jwgutter\AppData\Local\Temp\cc29UnI2.s 			page 29


 319:LiquidCrystal_I2C.c ****     
 320:LiquidCrystal_I2C.c ****     return;
 1277              		.loc 1 320 0
 1278 0032 00BF     		nop
 321:LiquidCrystal_I2C.c **** }
 1279              		.loc 1 321 0
 1280 0034 0837     		adds	r7, r7, #8
 1281              		.cfi_def_cfa_offset 8
 1282 0036 BD46     		mov	sp, r7
 1283              		.cfi_def_cfa_register 13
 1284              		@ sp needed
 1285 0038 80BD     		pop	{r7, pc}
 1286              		.cfi_endproc
 1287              	.LFE88:
 1288              		.size	pulseEnable, .-pulseEnable
 1289 003a 00BF     		.section	.text.load_custom_character,"ax",%progbits
 1290              		.align	2
 1291              		.global	load_custom_character
 1292              		.thumb
 1293              		.thumb_func
 1294              		.type	load_custom_character, %function
 1295              	load_custom_character:
 1296              	.LFB89:
 322:LiquidCrystal_I2C.c **** 
 323:LiquidCrystal_I2C.c **** void load_custom_character(uint8_t char_num, uint8_t *rows){
 1297              		.loc 1 323 0
 1298              		.cfi_startproc
 1299              		@ args = 0, pretend = 0, frame = 8
 1300              		@ frame_needed = 1, uses_anonymous_args = 0
 1301 0000 80B5     		push	{r7, lr}
 1302              		.cfi_def_cfa_offset 8
 1303              		.cfi_offset 7, -8
 1304              		.cfi_offset 14, -4
 1305 0002 82B0     		sub	sp, sp, #8
 1306              		.cfi_def_cfa_offset 16
 1307 0004 00AF     		add	r7, sp, #0
 1308              		.cfi_def_cfa_register 7
 1309 0006 0346     		mov	r3, r0
 1310 0008 3960     		str	r1, [r7]
 1311 000a FB71     		strb	r3, [r7, #7]
 324:LiquidCrystal_I2C.c **** 	
 325:LiquidCrystal_I2C.c ****     createChar(char_num, rows);
 1312              		.loc 1 325 0
 1313 000c FB79     		ldrb	r3, [r7, #7]	@ zero_extendqisi2
 1314 000e 1846     		mov	r0, r3
 1315 0010 3968     		ldr	r1, [r7]
 1316 0012 FFF7FEFF 		bl	createChar
 326:LiquidCrystal_I2C.c ****     
 327:LiquidCrystal_I2C.c ****     return;
 1317              		.loc 1 327 0
 1318 0016 00BF     		nop
 328:LiquidCrystal_I2C.c **** }
 1319              		.loc 1 328 0
 1320 0018 0837     		adds	r7, r7, #8
 1321              		.cfi_def_cfa_offset 8
 1322 001a BD46     		mov	sp, r7
 1323              		.cfi_def_cfa_register 13
ARM GAS  C:\Users\jwgutter\AppData\Local\Temp\cc29UnI2.s 			page 30


 1324              		@ sp needed
 1325 001c 80BD     		pop	{r7, pc}
 1326              		.cfi_endproc
 1327              	.LFE89:
 1328              		.size	load_custom_character, .-load_custom_character
 1329 001e 00BF     		.section	.text.setBacklight,"ax",%progbits
 1330              		.align	2
 1331              		.global	setBacklight
 1332              		.thumb
 1333              		.thumb_func
 1334              		.type	setBacklight, %function
 1335              	setBacklight:
 1336              	.LFB90:
 329:LiquidCrystal_I2C.c **** 
 330:LiquidCrystal_I2C.c **** void setBacklight(uint8_t new_val){
 1337              		.loc 1 330 0
 1338              		.cfi_startproc
 1339              		@ args = 0, pretend = 0, frame = 8
 1340              		@ frame_needed = 1, uses_anonymous_args = 0
 1341 0000 80B5     		push	{r7, lr}
 1342              		.cfi_def_cfa_offset 8
 1343              		.cfi_offset 7, -8
 1344              		.cfi_offset 14, -4
 1345 0002 82B0     		sub	sp, sp, #8
 1346              		.cfi_def_cfa_offset 16
 1347 0004 00AF     		add	r7, sp, #0
 1348              		.cfi_def_cfa_register 7
 1349 0006 0346     		mov	r3, r0
 1350 0008 FB71     		strb	r3, [r7, #7]
 331:LiquidCrystal_I2C.c ****     
 332:LiquidCrystal_I2C.c **** 	if (new_val) {
 1351              		.loc 1 332 0
 1352 000a FB79     		ldrb	r3, [r7, #7]	@ zero_extendqisi2
 1353 000c 002B     		cmp	r3, #0
 1354 000e 02D0     		beq	.L93
 333:LiquidCrystal_I2C.c **** 		backlight();		// turn backlight on
 1355              		.loc 1 333 0
 1356 0010 FFF7FEFF 		bl	backlight
 1357 0014 01E0     		b	.L94
 1358              	.L93:
 334:LiquidCrystal_I2C.c **** 	} else {
 335:LiquidCrystal_I2C.c **** 		noBacklight();		// turn backlight off
 1359              		.loc 1 335 0
 1360 0016 FFF7FEFF 		bl	noBacklight
 1361              	.L94:
 336:LiquidCrystal_I2C.c **** 	}
 337:LiquidCrystal_I2C.c ****     
 338:LiquidCrystal_I2C.c ****     return;
 1362              		.loc 1 338 0
 1363 001a 00BF     		nop
 339:LiquidCrystal_I2C.c **** }
 1364              		.loc 1 339 0
 1365 001c 0837     		adds	r7, r7, #8
 1366              		.cfi_def_cfa_offset 8
 1367 001e BD46     		mov	sp, r7
 1368              		.cfi_def_cfa_register 13
 1369              		@ sp needed
ARM GAS  C:\Users\jwgutter\AppData\Local\Temp\cc29UnI2.s 			page 31


 1370 0020 80BD     		pop	{r7, pc}
 1371              		.cfi_endproc
 1372              	.LFE90:
 1373              		.size	setBacklight, .-setBacklight
 1374 0022 00BF     		.section	.text.LCD_print,"ax",%progbits
 1375              		.align	2
 1376              		.global	LCD_print
 1377              		.thumb
 1378              		.thumb_func
 1379              		.type	LCD_print, %function
 1380              	LCD_print:
 1381              	.LFB91:
 340:LiquidCrystal_I2C.c **** 
 341:LiquidCrystal_I2C.c **** void LCD_print(char word[]){ uint32_t i = 0;
 1382              		.loc 1 341 0
 1383              		.cfi_startproc
 1384              		@ args = 0, pretend = 0, frame = 16
 1385              		@ frame_needed = 1, uses_anonymous_args = 0
 1386 0000 80B5     		push	{r7, lr}
 1387              		.cfi_def_cfa_offset 8
 1388              		.cfi_offset 7, -8
 1389              		.cfi_offset 14, -4
 1390 0002 84B0     		sub	sp, sp, #16
 1391              		.cfi_def_cfa_offset 24
 1392 0004 00AF     		add	r7, sp, #0
 1393              		.cfi_def_cfa_register 7
 1394 0006 7860     		str	r0, [r7, #4]
 1395              		.loc 1 341 0
 1396 0008 0023     		movs	r3, #0
 1397 000a FB60     		str	r3, [r7, #12]
 342:LiquidCrystal_I2C.c ****     
 343:LiquidCrystal_I2C.c ****     uint8_t size = strlen(word);
 1398              		.loc 1 343 0
 1399 000c 7868     		ldr	r0, [r7, #4]
 1400 000e FFF7FEFF 		bl	strlen
 1401 0012 0346     		mov	r3, r0
 1402 0014 FB72     		strb	r3, [r7, #11]
 344:LiquidCrystal_I2C.c ****     
 345:LiquidCrystal_I2C.c ****     for (i = 0; i < size; i++){
 1403              		.loc 1 345 0
 1404 0016 0023     		movs	r3, #0
 1405 0018 FB60     		str	r3, [r7, #12]
 1406 001a 09E0     		b	.L97
 1407              	.L98:
 346:LiquidCrystal_I2C.c ****         write(word[i]);
 1408              		.loc 1 346 0 discriminator 3
 1409 001c 7A68     		ldr	r2, [r7, #4]
 1410 001e FB68     		ldr	r3, [r7, #12]
 1411 0020 1344     		add	r3, r3, r2
 1412 0022 1B78     		ldrb	r3, [r3]	@ zero_extendqisi2
 1413 0024 1846     		mov	r0, r3
 1414 0026 FFF7FEFF 		bl	write
 345:LiquidCrystal_I2C.c ****         write(word[i]);
 1415              		.loc 1 345 0 discriminator 3
 1416 002a FB68     		ldr	r3, [r7, #12]
 1417 002c 0133     		adds	r3, r3, #1
 1418 002e FB60     		str	r3, [r7, #12]
ARM GAS  C:\Users\jwgutter\AppData\Local\Temp\cc29UnI2.s 			page 32


 1419              	.L97:
 345:LiquidCrystal_I2C.c ****         write(word[i]);
 1420              		.loc 1 345 0 is_stmt 0 discriminator 1
 1421 0030 FA7A     		ldrb	r2, [r7, #11]	@ zero_extendqisi2
 1422 0032 FB68     		ldr	r3, [r7, #12]
 1423 0034 9A42     		cmp	r2, r3
 1424 0036 F1D8     		bhi	.L98
 347:LiquidCrystal_I2C.c ****     }
 348:LiquidCrystal_I2C.c **** 
 349:LiquidCrystal_I2C.c ****     return;
 1425              		.loc 1 349 0 is_stmt 1
 1426 0038 00BF     		nop
 350:LiquidCrystal_I2C.c **** }
 1427              		.loc 1 350 0
 1428 003a 1037     		adds	r7, r7, #16
 1429              		.cfi_def_cfa_offset 8
 1430 003c BD46     		mov	sp, r7
 1431              		.cfi_def_cfa_register 13
 1432              		@ sp needed
 1433 003e 80BD     		pop	{r7, pc}
 1434              		.cfi_endproc
 1435              	.LFE91:
 1436              		.size	LCD_print, .-LCD_print
 1437              		.section	.text.I2C_M_write_byte,"ax",%progbits
 1438              		.align	2
 1439              		.global	I2C_M_write_byte
 1440              		.thumb
 1441              		.thumb_func
 1442              		.type	I2C_M_write_byte, %function
 1443              	I2C_M_write_byte:
 1444              	.LFB92:
 351:LiquidCrystal_I2C.c **** 
 352:LiquidCrystal_I2C.c **** void I2C_M_write_byte(uint8_t addr,uint8_t data){ 
 1445              		.loc 1 352 0
 1446              		.cfi_startproc
 1447              		@ args = 0, pretend = 0, frame = 8
 1448              		@ frame_needed = 1, uses_anonymous_args = 0
 1449 0000 80B5     		push	{r7, lr}
 1450              		.cfi_def_cfa_offset 8
 1451              		.cfi_offset 7, -8
 1452              		.cfi_offset 14, -4
 1453 0002 82B0     		sub	sp, sp, #8
 1454              		.cfi_def_cfa_offset 16
 1455 0004 00AF     		add	r7, sp, #0
 1456              		.cfi_def_cfa_register 7
 1457 0006 0346     		mov	r3, r0
 1458 0008 0A46     		mov	r2, r1
 1459 000a FB71     		strb	r3, [r7, #7]
 1460 000c 1346     		mov	r3, r2
 1461 000e BB71     		strb	r3, [r7, #6]
 353:LiquidCrystal_I2C.c **** 
 354:LiquidCrystal_I2C.c **** #if CY_PSOC5
 355:LiquidCrystal_I2C.c ****     I2C_Master_MasterSendStart(addr, 0);
 1462              		.loc 1 355 0
 1463 0010 FB79     		ldrb	r3, [r7, #7]	@ zero_extendqisi2
 1464 0012 1846     		mov	r0, r3
 1465 0014 0021     		movs	r1, #0
ARM GAS  C:\Users\jwgutter\AppData\Local\Temp\cc29UnI2.s 			page 33


 1466 0016 FFF7FEFF 		bl	I2C_Master_MasterSendStart
 356:LiquidCrystal_I2C.c ****     I2C_Master_MasterWriteByte(data);
 1467              		.loc 1 356 0
 1468 001a BB79     		ldrb	r3, [r7, #6]	@ zero_extendqisi2
 1469 001c 1846     		mov	r0, r3
 1470 001e FFF7FEFF 		bl	I2C_Master_MasterWriteByte
 357:LiquidCrystal_I2C.c ****     I2C_Master_MasterSendStop();
 1471              		.loc 1 357 0
 1472 0022 FFF7FEFF 		bl	I2C_Master_MasterSendStop
 358:LiquidCrystal_I2C.c **** #elif CY_PSOC4
 359:LiquidCrystal_I2C.c ****     I2C_I2CMasterSendStart(addr, 0);
 360:LiquidCrystal_I2C.c ****     I2C_I2CMasterWriteByte(data);
 361:LiquidCrystal_I2C.c ****     I2C_I2CMasterSendStop();
 362:LiquidCrystal_I2C.c **** #endif
 363:LiquidCrystal_I2C.c ****     
 364:LiquidCrystal_I2C.c ****     return;
 1473              		.loc 1 364 0
 1474 0026 00BF     		nop
 365:LiquidCrystal_I2C.c **** }
 1475              		.loc 1 365 0
 1476 0028 0837     		adds	r7, r7, #8
 1477              		.cfi_def_cfa_offset 8
 1478 002a BD46     		mov	sp, r7
 1479              		.cfi_def_cfa_register 13
 1480              		@ sp needed
 1481 002c 80BD     		pop	{r7, pc}
 1482              		.cfi_endproc
 1483              	.LFE92:
 1484              		.size	I2C_M_write_byte, .-I2C_M_write_byte
 1485 002e 00BF     		.text
 1486              	.Letext0:
 1487              		.file 2 "c:\\program files (x86)\\cypress\\psoc creator\\4.0\\psoc creator\\import\\gnu\\arm\\4.9.
 1488              		.file 3 "c:\\program files (x86)\\cypress\\psoc creator\\4.0\\psoc creator\\import\\gnu\\arm\\4.9.
 1489              		.file 4 "Generated_Source\\PSoC5/core_cm3.h"