ARM GAS  C:\Users\jwgutter\AppData\Local\Temp\ccsveQku.s 			page 1


   1              		.syntax unified
   2              		.cpu cortex-m3
   3              		.fpu softvfp
   4              		.eabi_attribute 20, 1
   5              		.eabi_attribute 21, 1
   6              		.eabi_attribute 23, 3
   7              		.eabi_attribute 24, 1
   8              		.eabi_attribute 25, 1
   9              		.eabi_attribute 26, 1
  10              		.eabi_attribute 30, 6
  11              		.eabi_attribute 34, 1
  12              		.eabi_attribute 18, 4
  13              		.thumb
  14              		.file	"main.c"
  15              		.text
  16              	.Ltext0:
  17              		.cfi_sections	.debug_frame
  18              		.comm	devAddr,1,1
  19              		.comm	buffer,22,4
  20              		.global	Addr
  21              		.data
  22              		.align	2
  23              		.type	Addr, %object
  24              		.size	Addr, 4
  25              	Addr:
  26 0000 3F000000 		.word	63
  27              		.global	id
  28              		.align	2
  29              		.type	id, %object
  30              		.size	id, 4
  31              	id:
  32 0004 01000000 		.word	1
  33              		.global	data_time
  34              		.bss
  35              		.align	2
  36              		.type	data_time, %object
  37              		.size	data_time, 4
  38              	data_time:
  39 0000 00000000 		.space	4
  40              		.global	sum
  41              		.align	2
  42              		.type	sum, %object
  43              		.size	sum, 4
  44              	sum:
  45 0004 00000000 		.space	4
  46              		.global	average
  47              		.align	1
  48              		.type	average, %object
  49              		.size	average, 2
  50              	average:
  51 0008 0000     		.space	2
  52              		.global	collect_flag
  53              		.type	collect_flag, %object
  54              		.size	collect_flag, 1
  55              	collect_flag:
  56 000a 00       		.space	1
  57              		.global	wait_flag
ARM GAS  C:\Users\jwgutter\AppData\Local\Temp\ccsveQku.s 			page 2


  58              		.type	wait_flag, %object
  59              		.size	wait_flag, 1
  60              	wait_flag:
  61 000b 00       		.space	1
  62              		.global	STATE
  63              		.data
  64              		.type	STATE, %object
  65              		.size	STATE, 1
  66              	STATE:
  67 0008 01       		.byte	1
  68              		.global	testnum
  69              		.type	testnum, %object
  70              		.size	testnum, 1
  71              	testnum:
  72 0009 01       		.byte	1
  73              		.global	countdown
  74              		.bss
  75              		.type	countdown, %object
  76              		.size	countdown, 1
  77              	countdown:
  78 000c 00       		.space	1
  79              		.global	file
  80              		.data
  81 000a 0000     		.align	2
  82              		.type	file, %object
  83              		.size	file, 11
  84              	file:
  85 000c 74657374 		.ascii	"test_1.txt\000"
  85      5F312E74 
  85      787400
  86              		.global	volume
  87 0017 00       		.bss
  88 000d 000000   		.align	2
  89              		.type	volume, %object
  90              		.size	volume, 10
  91              	volume:
  92 0010 00000000 		.space	10
  92      00000000 
  92      0000
  93              		.comm	fsfile,4,4
  94 001a 0000     		.section	.text.Sample_ISR_Handler,"ax",%progbits
  95              		.align	2
  96              		.global	Sample_ISR_Handler
  97              		.thumb
  98              		.thumb_func
  99              		.type	Sample_ISR_Handler, %function
 100              	Sample_ISR_Handler:
 101              	.LFB63:
 102              		.file 1 "main.c"
   1:main.c        **** /*******************************************************************************
   2:main.c        **** * File Name: main.c
   3:main.c        **** *
   4:main.c        **** * Version: 2.20
   5:main.c        **** *
   6:main.c        **** * Description:
   7:main.c        **** *   This is a source code for example project of ADC single ended mode.
   8:main.c        **** *
ARM GAS  C:\Users\jwgutter\AppData\Local\Temp\ccsveQku.s 			page 3


   9:main.c        **** *   Variable resistor(pot) is connected to +ve input of ADC using the I/O pin.
  10:main.c        **** *   P0.0. When voltage to positive terminal of ADC is 0, the output displayed
  11:main.c        **** *   on the LCD pannel is 0x0000. As voltage on positive terminal goes on
  12:main.c        **** *   increasing, the  converted value goes on increasing from 0x0000 and reaches
  13:main.c        **** *   0xFFFF when voltage becomes 1.024V. Futher increase in voltage value,
  14:main.c        **** *   doesn't cause any changes to values displayed in the LCD.
  15:main.c        **** *
  16:main.c        **** * Hardware Connections: 
  17:main.c        **** *  Connect analog input from Variable resistor to port P0[0] of DVK1 board.
  18:main.c        **** *
  19:main.c        **** ********************************************************************************
  20:main.c        **** * Copyright 2012-2015, Cypress Semiconductor Corporation. All rights reserved.
  21:main.c        **** * This software is owned by Cypress Semiconductor Corporation and is protected
  22:main.c        **** * by and subject to worldwide patent and copyright laws and treaties.
  23:main.c        **** * Therefore, you may use this software only as provided in the license agreement
  24:main.c        **** * accompanying the software package from which you obtained this software.
  25:main.c        **** * CYPRESS AND ITS SUPPLIERS MAKE NO WARRANTY OF ANY KIND, EXPRESS OR IMPLIED,
  26:main.c        **** * WITH REGARD TO THIS SOFTWARE, INCLUDING, BUT NOT LIMITED TO, NONINFRINGEMENT,
  27:main.c        **** * IMPLIED WARRANTIES OF MERCHANTABILITY AND FITNESS FOR A PARTICULAR PURPOSE.
  28:main.c        **** *******************************************************************************/
  29:main.c        **** 
  30:main.c        **** 
  31:main.c        **** //SUUUUUP
  32:main.c        **** //FUCK YOU
  33:main.c        **** 
  34:main.c        **** #include <project.h>
  35:main.c        **** #include <mpu6050.h>
  36:main.c        **** #include <stdio.h>
  37:main.c        **** #include <string.h>
  38:main.c        **** #include <FS.h>
  39:main.c        **** #include "LiquidCrystal_I2C.h"
  40:main.c        **** #include "functions.h"
  41:main.c        **** 
  42:main.c        **** #define MPU6050 
  43:main.c        **** #define LCD
  44:main.c        **** #define SD
  45:main.c        **** 
  46:main.c        **** #define MA_WINDOW 15                    // Number of samples in the moving average window.
  47:main.c        **** #define BOT_THRESHOLD 20000             // Z-Aacceleration threshold for transition into LANDED sta
  48:main.c        **** #define WAIT_TIME 1000                  // Number of ISR calls until transition into DESCENDING sta
  49:main.c        **** #define DATA_TIME 5000                  // Number of ISR calls until transition into WAIT_TO_LAUNCH
  50:main.c        **** 
  51:main.c        **** 
  52:main.c        **** /*State Declarations*/
  53:main.c        **** enum STATES{
  54:main.c        **** SYSTEM_CHECK, 
  55:main.c        **** WAIT_TO_LAUNCH,
  56:main.c        **** DESCENDING,
  57:main.c        **** LANDED,
  58:main.c        **** RESURFACE,
  59:main.c        **** TRANSMIT,
  60:main.c        **** ERROR
  61:main.c        **** };
  62:main.c        **** 
  63:main.c        **** 
  64:main.c        **** uint32_t Addr = 0x3F;                       // I2C address of LCD.
  65:main.c        **** long id = 1;                                // Interrupt count.
ARM GAS  C:\Users\jwgutter\AppData\Local\Temp\ccsveQku.s 			page 4


  66:main.c        **** long data_time = 0;                        // data point num
  67:main.c        **** 
  68:main.c        **** long sum = 0;                               // Sum of accelerometer values. 
  69:main.c        **** int16_t average = 0;                        // Moving average variable.
  70:main.c        **** bool collect_flag = 0;                      // flag indicating when to record acceleration sample.
  71:main.c        **** bool wait_flag = 0;                         // flag indicating when to increment interrupt counter.
  72:main.c        **** //bool first_test = 1;                        // flag indicating first test(longer countdown)
  73:main.c        **** enum STATES STATE = WAIT_TO_LAUNCH;         // Set initial state. 
  74:main.c        **** uint8_t testnum = 1, countdown = 0;
  75:main.c        **** char file[11] = "test_1.txt";
  76:main.c        **** char volume[10] = {};
  77:main.c        **** FS_FILE *fsfile;
  78:main.c        **** 
  79:main.c        **** /*******************************************************************************
  80:main.c        **** * Function Name: main
  81:main.c        **** ********************************************************************************
  82:main.c        **** *
  83:main.c        **** * Summary:
  84:main.c        **** *  main() performs following functions:
  85:main.c        **** *  1: Initializes the LCD.
  86:main.c        **** *  2: Initializes timer module and sampling interrupt.
  87:main.c        **** *  3: Initializes MPU6050 Accelerometer/Gyroscope module.
  88:main.c        **** *  4: Samples Z-axis acceleration data from module @ 500hz.
  89:main.c        **** *  5: Computes moving average of Z-axis acceleration values.
  90:main.c        **** *  6: Transitions from DESCENDING to LANDED state when sudden acceleration occurs
  91:main.c        **** *     (ie. moving average > 200000).
  92:main.c        **** *
  93:main.c        **** * Parameters:
  94:main.c        **** *  None.
  95:main.c        **** *
  96:main.c        **** * Return:
  97:main.c        **** *  None.
  98:main.c        **** *
  99:main.c        **** *******************************************************************************/
 100:main.c        **** 
 101:main.c        **** /* Sampling ISR */
 102:main.c        **** CY_ISR (Sample_ISR_Handler){
 103              		.loc 1 102 0
 104              		.cfi_startproc
 105              		@ args = 0, pretend = 0, frame = 0
 106              		@ frame_needed = 1, uses_anonymous_args = 0
 107              		@ link register save eliminated.
 108 0000 80B4     		push	{r7}
 109              		.cfi_def_cfa_offset 4
 110              		.cfi_offset 7, -4
 111 0002 00AF     		add	r7, sp, #0
 112              		.cfi_def_cfa_register 7
 103:main.c        ****     
 104:main.c        ****     Sample_Timer_STATUS;                        //Clears interrupt by accessing timer status regist
 113              		.loc 1 104 0
 114 0004 084B     		ldr	r3, .L3
 115 0006 1B78     		ldrb	r3, [r3]
 105:main.c        ****     if (STATE == DESCENDING){ 
 116              		.loc 1 105 0
 117 0008 084B     		ldr	r3, .L3+4
 118 000a 1B78     		ldrb	r3, [r3]	@ zero_extendqisi2
 119 000c 022B     		cmp	r3, #2
ARM GAS  C:\Users\jwgutter\AppData\Local\Temp\ccsveQku.s 			page 5


 120 000e 07D1     		bne	.L1
 106:main.c        ****         collect_flag = 1;
 121              		.loc 1 106 0
 122 0010 074B     		ldr	r3, .L3+8
 123 0012 0122     		movs	r2, #1
 124 0014 1A70     		strb	r2, [r3]
 107:main.c        ****         data_time++;
 125              		.loc 1 107 0
 126 0016 074B     		ldr	r3, .L3+12
 127 0018 1B68     		ldr	r3, [r3]
 128 001a 0133     		adds	r3, r3, #1
 129 001c 054A     		ldr	r2, .L3+12
 130 001e 1360     		str	r3, [r2]
 131              	.L1:
 108:main.c        ****     }
 109:main.c        **** }
 132              		.loc 1 109 0
 133 0020 BD46     		mov	sp, r7
 134              		.cfi_def_cfa_register 13
 135              		@ sp needed
 136 0022 5DF8047B 		ldr	r7, [sp], #4
 137              		.cfi_restore 7
 138              		.cfi_def_cfa_offset 0
 139 0026 7047     		bx	lr
 140              	.L4:
 141              		.align	2
 142              	.L3:
 143 0028 034F0040 		.word	1073762051
 144 002c 00000000 		.word	STATE
 145 0030 00000000 		.word	collect_flag
 146 0034 00000000 		.word	data_time
 147              		.cfi_endproc
 148              	.LFE63:
 149              		.size	Sample_ISR_Handler, .-Sample_ISR_Handler
 150              		.section	.text.Countdown_ISR_Handler,"ax",%progbits
 151              		.align	2
 152              		.global	Countdown_ISR_Handler
 153              		.thumb
 154              		.thumb_func
 155              		.type	Countdown_ISR_Handler, %function
 156              	Countdown_ISR_Handler:
 157              	.LFB64:
 110:main.c        **** 
 111:main.c        **** CY_ISR (Countdown_ISR_Handler){
 158              		.loc 1 111 0
 159              		.cfi_startproc
 160              		@ args = 0, pretend = 0, frame = 0
 161              		@ frame_needed = 1, uses_anonymous_args = 0
 162              		@ link register save eliminated.
 163 0000 80B4     		push	{r7}
 164              		.cfi_def_cfa_offset 4
 165              		.cfi_offset 7, -4
 166 0002 00AF     		add	r7, sp, #0
 167              		.cfi_def_cfa_register 7
 112:main.c        ****     
 113:main.c        ****     Countdown_timer_STATUS;                        //Clears interrupt by accessing timer status reg
 168              		.loc 1 113 0
ARM GAS  C:\Users\jwgutter\AppData\Local\Temp\ccsveQku.s 			page 6


 169 0004 0D4B     		ldr	r3, .L8
 170 0006 1B78     		ldrb	r3, [r3]
 114:main.c        ****     if (STATE == WAIT_TO_LAUNCH){ 
 171              		.loc 1 114 0
 172 0008 0D4B     		ldr	r3, .L8+4
 173 000a 1B78     		ldrb	r3, [r3]	@ zero_extendqisi2
 174 000c 012B     		cmp	r3, #1
 175 000e 09D1     		bne	.L6
 115:main.c        ****         wait_flag = 1;
 176              		.loc 1 115 0
 177 0010 0C4B     		ldr	r3, .L8+8
 178 0012 0122     		movs	r2, #1
 179 0014 1A70     		strb	r2, [r3]
 116:main.c        ****         countdown++;
 180              		.loc 1 116 0
 181 0016 0C4B     		ldr	r3, .L8+12
 182 0018 1B78     		ldrb	r3, [r3]	@ zero_extendqisi2
 183 001a 0133     		adds	r3, r3, #1
 184 001c DAB2     		uxtb	r2, r3
 185 001e 0A4B     		ldr	r3, .L8+12
 186 0020 1A70     		strb	r2, [r3]
 187 0022 06E0     		b	.L5
 188              	.L6:
 117:main.c        ****     }
 118:main.c        ****     else  if (STATE == DESCENDING){
 189              		.loc 1 118 0
 190 0024 064B     		ldr	r3, .L8+4
 191 0026 1B78     		ldrb	r3, [r3]	@ zero_extendqisi2
 192 0028 022B     		cmp	r3, #2
 193 002a 02D1     		bne	.L5
 119:main.c        ****         wait_flag = 1;
 194              		.loc 1 119 0
 195 002c 054B     		ldr	r3, .L8+8
 196 002e 0122     		movs	r2, #1
 197 0030 1A70     		strb	r2, [r3]
 198              	.L5:
 120:main.c        ****     }
 121:main.c        **** }
 199              		.loc 1 121 0
 200 0032 BD46     		mov	sp, r7
 201              		.cfi_def_cfa_register 13
 202              		@ sp needed
 203 0034 5DF8047B 		ldr	r7, [sp], #4
 204              		.cfi_restore 7
 205              		.cfi_def_cfa_offset 0
 206 0038 7047     		bx	lr
 207              	.L9:
 208 003a 00BF     		.align	2
 209              	.L8:
 210 003c 63640040 		.word	1073767523
 211 0040 00000000 		.word	STATE
 212 0044 00000000 		.word	wait_flag
 213 0048 00000000 		.word	countdown
 214              		.cfi_endproc
 215              	.LFE64:
 216              		.size	Countdown_ISR_Handler, .-Countdown_ISR_Handler
 217              		.section	.rodata
ARM GAS  C:\Users\jwgutter\AppData\Local\Temp\ccsveQku.s 			page 7


 218              		.align	2
 219              	.LC1:
 220 0000 50536F43 		.ascii	"PSoC 5LP: O-Vac\000"
 220      20354C50 
 220      3A204F2D 
 220      56616300 
 221              		.align	2
 222              	.LC2:
 223 0010 49324320 		.ascii	"I2C Working\000"
 223      576F726B 
 223      696E6700 
 224              		.align	2
 225              	.LC3:
 226 001c 53642076 		.ascii	"Sd vol succeed\000"
 226      6F6C2073 
 226      75636365 
 226      656400
 227 002b 00       		.align	2
 228              	.LC4:
 229 002c 53642076 		.ascii	"Sd vol failed\000"
 229      6F6C2066 
 229      61696C65 
 229      6400
 230 003a 0000     		.align	2
 231              	.LC5:
 232 003c 666F726D 		.ascii	"format Succeeded\000"
 232      61742053 
 232      75636365 
 232      65646564 
 232      00
 233 004d 000000   		.align	2
 234              	.LC6:
 235 0050 666F726D 		.ascii	"format Failed\000"
 235      61742046 
 235      61696C65 
 235      6400
 236 005e 0000     		.align	2
 237              	.LC7:
 238 0060 7700     		.ascii	"w\000"
 239 0062 0000     		.align	2
 240              	.LC8:
 241 0064 46696C65 		.ascii	"File \000"
 241      2000
 242 006a 0000     		.align	2
 243              	.LC9:
 244 006c 77617320 		.ascii	"was opened\000"
 244      6F70656E 
 244      656400
 245 0077 00       		.align	2
 246              	.LC10:
 247 0078 77726974 		.ascii	"written to file\000"
 247      74656E20 
 247      746F2066 
 247      696C6500 
 248              		.align	2
 249              	.LC11:
 250 0088 4661696C 		.ascii	"Failed to write\000"
ARM GAS  C:\Users\jwgutter\AppData\Local\Temp\ccsveQku.s 			page 8


 250      65642074 
 250      6F207772 
 250      69746500 
 251              		.align	2
 252              	.LC12:
 253 0098 66696C65 		.ascii	"file not created\000"
 253      206E6F74 
 253      20637265 
 253      61746564 
 253      00
 254 00a9 000000   		.align	2
 255              	.LC13:
 256 00ac 0A2D2D2D 		.ascii	"\012------------\012\000"
 256      2D2D2D2D 
 256      2D2D2D2D 
 256      2D0A00
 257              		.global	__aeabi_i2f
 258              		.global	__aeabi_f2d
 259              		.global	__aeabi_dmul
 260              		.global	__aeabi_d2f
 261              		.global	__aeabi_f2iz
 262              		.global	__aeabi_fsub
 263              		.global	__aeabi_fmul
 264 00bb 00       		.align	2
 265              	.LC14:
 266 00bc 542D6D69 		.ascii	"T-minus %d seconds\012\000"
 266      6E757320 
 266      25642073 
 266      65636F6E 
 266      64730A00 
 267              		.align	2
 268              	.LC15:
 269 00d0 53544154 		.ascii	"STATE: DESCENT\000"
 269      453A2044 
 269      45534345 
 269      4E5400
 270 00df 00       		.align	2
 271              	.LC16:
 272 00e0 53544154 		.ascii	"STATE: LANDED\000"
 272      453A204C 
 272      414E4445 
 272      4400
 273 00ee 0000     		.align	2
 274              	.LC17:
 275 00f0 53544154 		.ascii	"STATE: LANDED ***********\012\000"
 275      453A204C 
 275      414E4445 
 275      44202A2A 
 275      2A2A2A2A 
 276 010b 00       		.align	2
 277              	.LC18:
 278 010c 53544154 		.ascii	"STATE: WAIT\000"
 278      453A2057 
 278      41495400 
 279              		.align	2
 280              	.LC19:
 281 0118 70726573 		.ascii	"pressure: %d.%04d, %d\012\000"
ARM GAS  C:\Users\jwgutter\AppData\Local\Temp\ccsveQku.s 			page 9


 281      73757265 
 281      3A202564 
 281      2E253034 
 281      642C2025 
 282 012f 00       		.align	2
 283              	.LC20:
 284 0130 56414355 		.ascii	"VACUUMING\000"
 284      554D494E 
 284      4700
 285 013a 0000     		.align	2
 286              	.LC21:
 287 013c 53544154 		.ascii	"STATE: VACUUMING ***********\012\000"
 287      453A2056 
 287      41435555 
 287      4D494E47 
 287      202A2A2A 
 288 015a 0000     		.align	2
 289              	.LC22:
 290 015c 53544154 		.ascii	"STATE: RESURFACING\000"
 290      453A2052 
 290      45535552 
 290      46414349 
 290      4E4700
 291 016f 00       		.align	2
 292              	.LC23:
 293 0170 53544154 		.ascii	"STATE: RESURFACING ***********\012\000"
 293      453A2052 
 293      45535552 
 293      46414349 
 293      4E47202A 
 294              		.align	2
 295              	.LC24:
 296 0190 5452414E 		.ascii	"TRANSMIT\000"
 296      534D4954 
 296      00
 297 0199 000000   		.align	2
 298              	.LC25:
 299 019c 53544154 		.ascii	"STATE: TRANSMIT ***********\012\000"
 299      453A2054 
 299      52414E53 
 299      4D495420 
 299      2A2A2A2A 
 300 01b9 000000   		.align	2
 301              	.LC26:
 302 01bc 74657374 		.ascii	"test%d.txt\000"
 302      25642E74 
 302      787400
 303 01c7 00       		.align	2
 304              	.LC0:
 305 01c8 53595354 		.ascii	"SYSTEM_CHECK  \000"
 305      454D5F43 
 305      4845434B 
 305      202000
 306 01d7 00       		.section	.text.main,"ax",%progbits
 307              		.align	2
 308              		.global	main
 309              		.thumb
ARM GAS  C:\Users\jwgutter\AppData\Local\Temp\ccsveQku.s 			page 10


 310              		.thumb_func
 311              		.type	main, %function
 312              	main:
 313              	.LFB65:
 122:main.c        **** 
 123:main.c        **** int main()
 124:main.c        **** {
 314              		.loc 1 124 0
 315              		.cfi_startproc
 316              		@ args = 0, pretend = 0, frame = 152
 317              		@ frame_needed = 1, uses_anonymous_args = 0
 318 0000 B0B5     		push	{r4, r5, r7, lr}
 319              		.cfi_def_cfa_offset 16
 320              		.cfi_offset 4, -16
 321              		.cfi_offset 5, -12
 322              		.cfi_offset 7, -8
 323              		.cfi_offset 14, -4
 324 0002 A8B0     		sub	sp, sp, #160
 325              		.cfi_def_cfa_offset 176
 326 0004 02AF     		add	r7, sp, #8
 327              		.cfi_def_cfa 7, 168
 125:main.c        ****     LED2_1_Write(1); 
 328              		.loc 1 125 0
 329 0006 0120     		movs	r0, #1
 330 0008 FFF7FEFF 		bl	LED2_1_Write
 126:main.c        ****     float output;
 127:main.c        ****     char buf[50];                               //just to hold text values in for writing to UART
 128:main.c        ****     
 129:main.c        ****     char curState[14] = "SYSTEM_CHECK  ";
 331              		.loc 1 129 0
 332 000c C24B     		ldr	r3, .L39+8
 333 000e 07F13C04 		add	r4, r7, #60
 334 0012 0FCB     		ldmia	r3, {r0, r1, r2, r3}
 335 0014 07C4     		stmia	r4!, {r0, r1, r2}
 336 0016 2380     		strh	r3, [r4]	@ movhi
 130:main.c        ****     int16_t ax, ay, az, i;
 131:main.c        ****     //int16_t gx, gy, gz;
 132:main.c        ****     int16_t z_offset = 0;
 337              		.loc 1 132 0
 338 0018 0023     		movs	r3, #0
 339 001a A7F88A30 		strh	r3, [r7, #138]	@ movhi
 133:main.c        ****     
 134:main.c        ****     /* Start the components */
 135:main.c        ****     CYGlobalIntEnable;                          //enable global interrupts
 340              		.loc 1 135 0
 341              	@ 135 "main.c" 1
 342 001e 62B6     		CPSIE   i
 343              	@ 0 "" 2
 136:main.c        ****     I2C_Master_Start(); 
 344              		.loc 1 136 0
 345              		.thumb
 346 0020 FFF7FEFF 		bl	I2C_Master_Start
 137:main.c        ****     ADC_Start();
 347              		.loc 1 137 0
 348 0024 FFF7FEFF 		bl	ADC_Start
 138:main.c        ****     Sample_Timer_Start();                       //start timer module
 349              		.loc 1 138 0
ARM GAS  C:\Users\jwgutter\AppData\Local\Temp\ccsveQku.s 			page 11


 350 0028 FFF7FEFF 		bl	Sample_Timer_Start
 139:main.c        ****     Sample_ISR_StartEx(Sample_ISR_Handler);     //reference ISR function
 351              		.loc 1 139 0
 352 002c BB48     		ldr	r0, .L39+12
 353 002e FFF7FEFF 		bl	Sample_ISR_StartEx
 140:main.c        ****     
 141:main.c        ****     
 142:main.c        ****     #ifdef LCD
 143:main.c        ****     LiquidCrystal_I2C_init(Addr,16,2,0);        //initialize I2C communication with LCD
 354              		.loc 1 143 0
 355 0032 BB4B     		ldr	r3, .L39+16
 356 0034 1B68     		ldr	r3, [r3]
 357 0036 DBB2     		uxtb	r3, r3
 358 0038 1846     		mov	r0, r3
 359 003a 1021     		movs	r1, #16
 360 003c 0222     		movs	r2, #2
 361 003e 0023     		movs	r3, #0
 362 0040 FFF7FEFF 		bl	LiquidCrystal_I2C_init
 144:main.c        ****     begin(); 
 363              		.loc 1 144 0
 364 0044 FFF7FEFF 		bl	begin
 145:main.c        ****     
 146:main.c        ****     #endif
 147:main.c        ****    
 148:main.c        ****     /* initialize MPU6050 */
 149:main.c        ****     #ifdef MPU6050
 150:main.c        ****     MPU6050_init();    
 365              		.loc 1 150 0
 366 0048 FFF7FEFF 		bl	MPU6050_init
 151:main.c        **** 	MPU6050_initialize(); 
 367              		.loc 1 151 0
 368 004c FFF7FEFF 		bl	MPU6050_initialize
 152:main.c        ****     #endif
 153:main.c        ****         
 154:main.c        ****     #ifdef LCD
 155:main.c        ****     /* Startup Display */
 156:main.c        ****     LCD_print("PSoC 5LP: O-Vac");
 369              		.loc 1 156 0
 370 0050 B448     		ldr	r0, .L39+20
 371 0052 FFF7FEFF 		bl	LCD_print
 157:main.c        ****     setCursor(0,1);
 372              		.loc 1 157 0
 373 0056 0020     		movs	r0, #0
 374 0058 0121     		movs	r1, #1
 375 005a FFF7FEFF 		bl	setCursor
 158:main.c        ****     LCD_print("I2C Working");
 376              		.loc 1 158 0
 377 005e B248     		ldr	r0, .L39+24
 378 0060 FFF7FEFF 		bl	LCD_print
 159:main.c        ****     
 160:main.c        ****     CyDelay(1000u);   
 379              		.loc 1 160 0
 380 0064 4FF47A70 		mov	r0, #1000
 381 0068 FFF7FEFF 		bl	CyDelay
 161:main.c        ****     clear();
 382              		.loc 1 161 0
 383 006c FFF7FEFF 		bl	clear
ARM GAS  C:\Users\jwgutter\AppData\Local\Temp\ccsveQku.s 			page 12


 162:main.c        ****     #endif
 163:main.c        ****     
 164:main.c        ****     /* Start the ADC conversion */
 165:main.c        ****     ADC_StartConvert();
 384              		.loc 1 165 0
 385 0070 FFF7FEFF 		bl	ADC_StartConvert
 166:main.c        **** 
 167:main.c        ****     /* Start SD card*/
 168:main.c        ****     #ifdef SD
 169:main.c        ****         {
 170:main.c        ****             FS_Init();
 386              		.loc 1 170 0
 387 0074 FFF7FEFF 		bl	FS_Init
 171:main.c        ****             FS_Mount(volume);
 388              		.loc 1 171 0
 389 0078 AC48     		ldr	r0, .L39+28
 390 007a FFF7FEFF 		bl	FS_Mount
 172:main.c        ****             if(0 != FS_GetVolumeName(0u, volume, 9u))
 391              		.loc 1 172 0
 392 007e 0020     		movs	r0, #0
 393 0080 AA49     		ldr	r1, .L39+28
 394 0082 0922     		movs	r2, #9
 395 0084 FFF7FEFF 		bl	FS_GetVolumeName
 396 0088 0346     		mov	r3, r0
 397 008a 002B     		cmp	r3, #0
 398 008c 03D0     		beq	.L11
 173:main.c        ****                 /* Getting volume name succeeded so prompt it on the LCD */
 174:main.c        ****                 LCD_print("Sd vol succeed");
 399              		.loc 1 174 0
 400 008e A848     		ldr	r0, .L39+32
 401 0090 FFF7FEFF 		bl	LCD_print
 402 0094 02E0     		b	.L12
 403              	.L11:
 175:main.c        ****             else
 176:main.c        ****                 LCD_print("Sd vol failed");
 404              		.loc 1 176 0
 405 0096 A748     		ldr	r0, .L39+36
 406 0098 FFF7FEFF 		bl	LCD_print
 407              	.L12:
 177:main.c        ****                 
 178:main.c        ****             CyDelay(500u);
 408              		.loc 1 178 0
 409 009c 4FF4FA70 		mov	r0, #500
 410 00a0 FFF7FEFF 		bl	CyDelay
 179:main.c        ****             clear();
 411              		.loc 1 179 0
 412 00a4 FFF7FEFF 		bl	clear
 180:main.c        ****             if(0 == FS_FormatSD(volume))
 413              		.loc 1 180 0
 414 00a8 A048     		ldr	r0, .L39+28
 415 00aa FFF7FEFF 		bl	FS_FormatSD
 416 00ae 0346     		mov	r3, r0
 417 00b0 002B     		cmp	r3, #0
 418 00b2 03D1     		bne	.L13
 181:main.c        ****                 LCD_print("format Succeeded");
 419              		.loc 1 181 0
 420 00b4 A048     		ldr	r0, .L39+40
ARM GAS  C:\Users\jwgutter\AppData\Local\Temp\ccsveQku.s 			page 13


 421 00b6 FFF7FEFF 		bl	LCD_print
 422 00ba 02E0     		b	.L14
 423              	.L13:
 182:main.c        ****             else
 183:main.c        ****                 LCD_print("format Failed");
 424              		.loc 1 183 0
 425 00bc 9F48     		ldr	r0, .L39+44
 426 00be FFF7FEFF 		bl	LCD_print
 427              	.L14:
 184:main.c        ****           
 185:main.c        ****             CyDelay(500u);
 428              		.loc 1 185 0
 429 00c2 4FF4FA70 		mov	r0, #500
 430 00c6 FFF7FEFF 		bl	CyDelay
 186:main.c        ****             clear();
 431              		.loc 1 186 0
 432 00ca FFF7FEFF 		bl	clear
 187:main.c        ****             
 188:main.c        ****             fsfile = FS_FOpen(file, "w");
 433              		.loc 1 188 0
 434 00ce 9C48     		ldr	r0, .L39+48
 435 00d0 9C49     		ldr	r1, .L39+52
 436 00d2 FFF7FEFF 		bl	FS_FOpen
 437 00d6 0246     		mov	r2, r0
 438 00d8 9B4B     		ldr	r3, .L39+56
 439 00da 1A60     		str	r2, [r3]
 189:main.c        ****             if(fsfile)
 440              		.loc 1 189 0
 441 00dc 9A4B     		ldr	r3, .L39+56
 442 00de 1B68     		ldr	r3, [r3]
 443 00e0 002B     		cmp	r3, #0
 444 00e2 27D0     		beq	.L15
 190:main.c        ****             {
 191:main.c        ****                 /* Indicate successful file creation message */
 192:main.c        ****                 LCD_print("File ");
 445              		.loc 1 192 0
 446 00e4 9948     		ldr	r0, .L39+60
 447 00e6 FFF7FEFF 		bl	LCD_print
 193:main.c        ****                 LCD_print("was opened");
 448              		.loc 1 193 0
 449 00ea 9948     		ldr	r0, .L39+64
 450 00ec FFF7FEFF 		bl	LCD_print
 194:main.c        ****                 /* Need some delay to indicate output on the LCD */
 195:main.c        ****                 CyDelay(500u);
 451              		.loc 1 195 0
 452 00f0 4FF4FA70 		mov	r0, #500
 453 00f4 FFF7FEFF 		bl	CyDelay
 196:main.c        ****                 clear();
 454              		.loc 1 196 0
 455 00f8 FFF7FEFF 		bl	clear
 197:main.c        ****                 
 198:main.c        ****                 if(0 != FS_Write(fsfile, file, strlen(file))) 
 456              		.loc 1 198 0
 457 00fc 924B     		ldr	r3, .L39+56
 458 00fe 1C68     		ldr	r4, [r3]
 459 0100 8F48     		ldr	r0, .L39+48
 460 0102 FFF7FEFF 		bl	strlen
ARM GAS  C:\Users\jwgutter\AppData\Local\Temp\ccsveQku.s 			page 14


 461 0106 0346     		mov	r3, r0
 462 0108 2046     		mov	r0, r4
 463 010a 8D49     		ldr	r1, .L39+48
 464 010c 1A46     		mov	r2, r3
 465 010e FFF7FEFF 		bl	FS_Write
 466 0112 0346     		mov	r3, r0
 467 0114 002B     		cmp	r3, #0
 468 0116 03D0     		beq	.L16
 199:main.c        ****                     /* Inditate that data was written to a file */
 200:main.c        ****                     LCD_print("written to file");
 469              		.loc 1 200 0
 470 0118 8E48     		ldr	r0, .L39+68
 471 011a FFF7FEFF 		bl	LCD_print
 472 011e 02E0     		b	.L17
 473              	.L16:
 201:main.c        ****                 else
 202:main.c        ****                     LCD_print("Failed to write");
 474              		.loc 1 202 0
 475 0120 8D48     		ldr	r0, .L39+72
 476 0122 FFF7FEFF 		bl	LCD_print
 477              	.L17:
 203:main.c        ****                     clear();
 478              		.loc 1 203 0
 479 0126 FFF7FEFF 		bl	clear
 204:main.c        ****                 CyDelay(500u);
 480              		.loc 1 204 0
 481 012a 4FF4FA70 		mov	r0, #500
 482 012e FFF7FEFF 		bl	CyDelay
 483 0132 02E0     		b	.L18
 484              	.L15:
 205:main.c        ****             }
 206:main.c        ****             else
 207:main.c        ****                 LCD_print("file not created");
 485              		.loc 1 207 0
 486 0134 8948     		ldr	r0, .L39+76
 487 0136 FFF7FEFF 		bl	LCD_print
 488              	.L18:
 208:main.c        ****         }
 209:main.c        ****         FS_Write(fsfile, "\n------------\n", 14);
 489              		.loc 1 209 0
 490 013a 834B     		ldr	r3, .L39+56
 491 013c 1B68     		ldr	r3, [r3]
 492 013e 1846     		mov	r0, r3
 493 0140 8749     		ldr	r1, .L39+80
 494 0142 0E22     		movs	r2, #14
 495 0144 FFF7FEFF 		bl	FS_Write
 210:main.c        ****     #endif
 211:main.c        ****     
 212:main.c        ****     #ifdef LCD
 213:main.c        ****     /* Display the current State */
 214:main.c        ****     setCursor(0,0);    
 496              		.loc 1 214 0
 497 0148 0020     		movs	r0, #0
 498 014a 0021     		movs	r1, #0
 499 014c FFF7FEFF 		bl	setCursor
 215:main.c        ****     LCD_print(curState);
 500              		.loc 1 215 0
ARM GAS  C:\Users\jwgutter\AppData\Local\Temp\ccsveQku.s 			page 15


 501 0150 07F13C03 		add	r3, r7, #60
 502 0154 1846     		mov	r0, r3
 503 0156 FFF7FEFF 		bl	LCD_print
 216:main.c        ****     #endif
 217:main.c        ****     
 218:main.c        ****     
 219:main.c        ****     Countdown_timer_Start();
 504              		.loc 1 219 0
 505 015a FFF7FEFF 		bl	Countdown_timer_Start
 220:main.c        ****     countdown_StartEx(Countdown_ISR_Handler);
 506              		.loc 1 220 0
 507 015e 8148     		ldr	r0, .L39+84
 508 0160 FFF7FEFF 		bl	countdown_StartEx
 221:main.c        ****     int num = 0, decimals = 0;
 509              		.loc 1 221 0
 510 0164 0023     		movs	r3, #0
 511 0166 C7F89030 		str	r3, [r7, #144]
 512 016a 0023     		movs	r3, #0
 513 016c C7F88C30 		str	r3, [r7, #140]
 222:main.c        ****     float voltage = 0, temp = 0;
 514              		.loc 1 222 0
 515 0170 4FF00003 		mov	r3, #0
 516 0174 C7F88430 		str	r3, [r7, #132]	@ float
 517 0178 4FF00003 		mov	r3, #0
 518 017c C7F88030 		str	r3, [r7, #128]	@ float
 519              	.L37:
 223:main.c        ****     
 224:main.c        ****     
 225:main.c        ****     for(;;)
 226:main.c        ****     {       
 227:main.c        ****         if(ADC_IsEndConversion(ADC_RETURN_STATUS))
 520              		.loc 1 227 0
 521 0180 0120     		movs	r0, #1
 522 0182 FFF7FEFF 		bl	ADC_IsEndConversion
 523 0186 0346     		mov	r3, r0
 524 0188 002B     		cmp	r3, #0
 525 018a 42D0     		beq	.L19
 526              	.LBB2:
 228:main.c        ****         {
 229:main.c        ****             char pressure[50];
 230:main.c        ****             output = ADC_GetResult32();
 527              		.loc 1 230 0
 528 018c FFF7FEFF 		bl	ADC_GetResult32
 529 0190 0346     		mov	r3, r0
 530 0192 1846     		mov	r0, r3
 531 0194 FFF7FEFF 		bl	__aeabi_i2f
 532 0198 0346     		mov	r3, r0
 533 019a C7F89430 		str	r3, [r7, #148]	@ float
 231:main.c        ****             
 232:main.c        ****             setCursor(0, 1);
 534              		.loc 1 232 0
 535 019e 0020     		movs	r0, #0
 536 01a0 0121     		movs	r1, #1
 537 01a2 FFF7FEFF 		bl	setCursor
 233:main.c        ****             voltage = output * (3.32 / 4096);
 538              		.loc 1 233 0
 539 01a6 D7F89400 		ldr	r0, [r7, #148]	@ float
ARM GAS  C:\Users\jwgutter\AppData\Local\Temp\ccsveQku.s 			page 16


 540 01aa FFF7FEFF 		bl	__aeabi_f2d
 541 01ae 0246     		mov	r2, r0
 542 01b0 0B46     		mov	r3, r1
 543 01b2 1046     		mov	r0, r2
 544 01b4 1946     		mov	r1, r3
 545 01b6 56A3     		adr	r3, .L39
 546 01b8 D3E90023 		ldrd	r2, [r3]
 547 01bc FFF7FEFF 		bl	__aeabi_dmul
 548 01c0 0246     		mov	r2, r0
 549 01c2 0B46     		mov	r3, r1
 550 01c4 1046     		mov	r0, r2
 551 01c6 1946     		mov	r1, r3
 552 01c8 FFF7FEFF 		bl	__aeabi_d2f
 553 01cc 0346     		mov	r3, r0
 554 01ce C7F88430 		str	r3, [r7, #132]	@ float
 234:main.c        ****             num = voltage;
 555              		.loc 1 234 0
 556 01d2 D7F88400 		ldr	r0, [r7, #132]	@ float
 557 01d6 FFF7FEFF 		bl	__aeabi_f2iz
 558 01da 0346     		mov	r3, r0
 559 01dc C7F89030 		str	r3, [r7, #144]
 235:main.c        ****             temp = voltage - num;
 560              		.loc 1 235 0
 561 01e0 D7F89000 		ldr	r0, [r7, #144]
 562 01e4 FFF7FEFF 		bl	__aeabi_i2f
 563 01e8 0346     		mov	r3, r0
 564 01ea D7F88400 		ldr	r0, [r7, #132]	@ float
 565 01ee 1946     		mov	r1, r3
 566 01f0 FFF7FEFF 		bl	__aeabi_fsub
 567 01f4 0346     		mov	r3, r0
 568 01f6 C7F88030 		str	r3, [r7, #128]	@ float
 236:main.c        ****             decimals = temp * 10000;
 569              		.loc 1 236 0
 570 01fa D7F88000 		ldr	r0, [r7, #128]	@ float
 571 01fe 5A49     		ldr	r1, .L39+88
 572 0200 FFF7FEFF 		bl	__aeabi_fmul
 573 0204 0346     		mov	r3, r0
 574 0206 1846     		mov	r0, r3
 575 0208 FFF7FEFF 		bl	__aeabi_f2iz
 576 020c 0346     		mov	r3, r0
 577 020e C7F88C30 		str	r3, [r7, #140]
 578              	.L19:
 579              	.LBE2:
 237:main.c        ****             #ifdef SD
 238:main.c        **** //                
 239:main.c        ****             #endif
 240:main.c        ****             
 241:main.c        ****         }
 242:main.c        ****         
 243:main.c        ****         /* Display Z-Acceleration */
 244:main.c        ****         //clear();
 245:main.c        ****         az = MPU6050_getAccelerationZ();
 580              		.loc 1 245 0
 581 0212 FFF7FEFF 		bl	MPU6050_getAccelerationZ
 582 0216 0346     		mov	r3, r0
 583 0218 A7F87E30 		strh	r3, [r7, #126]	@ movhi
 246:main.c        ****        // I2C_LCD_print(1,0, id ,0,average);                                //print Interrupt count
ARM GAS  C:\Users\jwgutter\AppData\Local\Temp\ccsveQku.s 			page 17


 247:main.c        ****         
 248:main.c        ****         /* State Machine */
 249:main.c        ****         switch (STATE){
 584              		.loc 1 249 0
 585 021c 534B     		ldr	r3, .L39+92
 586 021e 1B78     		ldrb	r3, [r3]	@ zero_extendqisi2
 587 0220 013B     		subs	r3, r3, #1
 588 0222 042B     		cmp	r3, #4
 589 0224 00F21E82 		bhi	.L38
 590 0228 01A2     		adr	r2, .L22
 591 022a 52F823F0 		ldr	pc, [r2, r3, lsl #2]
 592 022e 00BF     		.p2align 2
 593              	.L22:
 594 0230 45020000 		.word	.L21+1
 595 0234 BB020000 		.word	.L23+1
 596 0238 E9040000 		.word	.L24+1
 597 023c A9050000 		.word	.L25+1
 598 0240 17060000 		.word	.L26+1
 599              		.p2align 1
 600              	.L21:
 601              	.LBB3:
 250:main.c        ****     
 251:main.c        ****             case WAIT_TO_LAUNCH:
 252:main.c        ****                 
 253:main.c        **** 
 254:main.c        ****                 if(wait_flag == 1){
 602              		.loc 1 254 0
 603 0244 4A4B     		ldr	r3, .L39+96
 604 0246 1B78     		ldrb	r3, [r3]	@ zero_extendqisi2
 605 0248 002B     		cmp	r3, #0
 606 024a 35D0     		beq	.L27
 255:main.c        ****                     #ifdef LCD
 256:main.c        ****                         setCursor(0,0);
 607              		.loc 1 256 0
 608 024c 0020     		movs	r0, #0
 609 024e 0021     		movs	r1, #0
 610 0250 FFF7FEFF 		bl	setCursor
 257:main.c        ****                         clear();
 611              		.loc 1 257 0
 612 0254 FFF7FEFF 		bl	clear
 258:main.c        ****                         sprintf(buf, "T-minus %d seconds\n", (60 - countdown)); // countdown
 613              		.loc 1 258 0
 614 0258 464B     		ldr	r3, .L39+100
 615 025a 1B78     		ldrb	r3, [r3]	@ zero_extendqisi2
 616 025c C3F13C03 		rsb	r3, r3, #60
 617 0260 07F14C02 		add	r2, r7, #76
 618 0264 1046     		mov	r0, r2
 619 0266 4449     		ldr	r1, .L39+104
 620 0268 1A46     		mov	r2, r3
 621 026a FFF7FEFF 		bl	sprintf
 259:main.c        ****                         LCD_print(buf);
 622              		.loc 1 259 0
 623 026e 07F14C03 		add	r3, r7, #76
 624 0272 1846     		mov	r0, r3
 625 0274 FFF7FEFF 		bl	LCD_print
 260:main.c        ****                     #endif
 261:main.c        ****                     if(countdown == 60){
ARM GAS  C:\Users\jwgutter\AppData\Local\Temp\ccsveQku.s 			page 18


 626              		.loc 1 261 0
 627 0278 3E4B     		ldr	r3, .L39+100
 628 027a 1B78     		ldrb	r3, [r3]	@ zero_extendqisi2
 629 027c 3C2B     		cmp	r3, #60
 630 027e 17D1     		bne	.L28
 262:main.c        ****                         STATE = DESCENDING;
 631              		.loc 1 262 0
 632 0280 3A4B     		ldr	r3, .L39+92
 633 0282 0222     		movs	r2, #2
 634 0284 1A70     		strb	r2, [r3]
 263:main.c        ****                         #ifdef LCD
 264:main.c        ****                             setCursor(0,0);
 635              		.loc 1 264 0
 636 0286 0020     		movs	r0, #0
 637 0288 0021     		movs	r1, #0
 638 028a FFF7FEFF 		bl	setCursor
 265:main.c        ****                             clear();
 639              		.loc 1 265 0
 640 028e FFF7FEFF 		bl	clear
 266:main.c        ****                             LCD_print("STATE: DESCENT");
 641              		.loc 1 266 0
 642 0292 3A48     		ldr	r0, .L39+108
 643 0294 FFF7FEFF 		bl	LCD_print
 267:main.c        ****                         #endif           
 268:main.c        ****                         id=0;
 644              		.loc 1 268 0
 645 0298 394B     		ldr	r3, .L39+112
 646 029a 0022     		movs	r2, #0
 647 029c 1A60     		str	r2, [r3]
 269:main.c        ****                         data_time = 0;
 648              		.loc 1 269 0
 649 029e 394B     		ldr	r3, .L39+116
 650 02a0 0022     		movs	r2, #0
 651 02a2 1A60     		str	r2, [r3]
 270:main.c        ****                         countdown = 9;
 652              		.loc 1 270 0
 653 02a4 334B     		ldr	r3, .L39+100
 654 02a6 0922     		movs	r2, #9
 655 02a8 1A70     		strb	r2, [r3]
 271:main.c        ****                         LED2_Write(1);                                      // turn the LED off 
 656              		.loc 1 271 0
 657 02aa 0120     		movs	r0, #1
 658 02ac FFF7FEFF 		bl	LED2_Write
 659              	.L28:
 272:main.c        ****                     }
 273:main.c        ****                     wait_flag = 0; 
 660              		.loc 1 273 0
 661 02b0 2F4B     		ldr	r3, .L39+96
 662 02b2 0022     		movs	r2, #0
 663 02b4 1A70     		strb	r2, [r3]
 274:main.c        ****                 }
 275:main.c        ****                 break;
 664              		.loc 1 275 0
 665 02b6 D6E1     		b	.L29
 666              	.L27:
 667 02b8 D5E1     		b	.L29
 668              	.L23:
ARM GAS  C:\Users\jwgutter\AppData\Local\Temp\ccsveQku.s 			page 19


 276:main.c        ****                 
 277:main.c        ****             case DESCENDING:
 278:main.c        ****     
 279:main.c        ****                 if(collect_flag == 1){
 669              		.loc 1 279 0
 670 02ba 334B     		ldr	r3, .L39+120
 671 02bc 1B78     		ldrb	r3, [r3]	@ zero_extendqisi2
 672 02be 002B     		cmp	r3, #0
 673 02c0 00F0E680 		beq	.L30
 280:main.c        ****                     
 281:main.c        ****                     if (id<MA_WINDOW){
 674              		.loc 1 281 0
 675 02c4 2E4B     		ldr	r3, .L39+112
 676 02c6 1B68     		ldr	r3, [r3]
 677 02c8 0E2B     		cmp	r3, #14
 678 02ca 07DC     		bgt	.L31
 282:main.c        ****                         sum += az;     
 679              		.loc 1 282 0
 680 02cc B7F97E20 		ldrsh	r2, [r7, #126]
 681 02d0 2E4B     		ldr	r3, .L39+124
 682 02d2 1B68     		ldr	r3, [r3]
 683 02d4 1344     		add	r3, r3, r2
 684 02d6 2D4A     		ldr	r2, .L39+124
 685 02d8 1360     		str	r3, [r2]
 686 02da 6BE0     		b	.L32
 687              	.L31:
 283:main.c        ****                     }
 284:main.c        ****                     else if(id == MA_WINDOW){
 688              		.loc 1 284 0
 689 02dc 284B     		ldr	r3, .L39+112
 690 02de 1B68     		ldr	r3, [r3]
 691 02e0 0F2B     		cmp	r3, #15
 692 02e2 59D1     		bne	.L33
 285:main.c        ****                         sum += az;
 693              		.loc 1 285 0
 694 02e4 B7F97E20 		ldrsh	r2, [r7, #126]
 695 02e8 284B     		ldr	r3, .L39+124
 696 02ea 1B68     		ldr	r3, [r3]
 697 02ec 1344     		add	r3, r3, r2
 698 02ee 274A     		ldr	r2, .L39+124
 699 02f0 1360     		str	r3, [r2]
 286:main.c        ****                         average = sum/MA_WINDOW;                            //compute baseline aver
 700              		.loc 1 286 0
 701 02f2 264B     		ldr	r3, .L39+124
 702 02f4 1B68     		ldr	r3, [r3]
 703 02f6 264A     		ldr	r2, .L39+128
 704 02f8 82FB0312 		smull	r1, r2, r2, r3
 705 02fc 1A44     		add	r2, r2, r3
 706 02fe D210     		asrs	r2, r2, #3
 707 0300 DB17     		asrs	r3, r3, #31
 708 0302 D31A     		subs	r3, r2, r3
 709 0304 9AB2     		uxth	r2, r3
 710 0306 234B     		ldr	r3, .L39+132
 711 0308 1A80     		strh	r2, [r3]	@ movhi
 712 030a 53E0     		b	.L32
 713              	.L40:
 714 030c AFF30080 		.align	3
ARM GAS  C:\Users\jwgutter\AppData\Local\Temp\ccsveQku.s 			page 20


 715              	.L39:
 716 0310 8FC2F528 		.word	687194767
 717 0314 5C8F4A3F 		.word	1061850972
 718 0318 C8010000 		.word	.LC0
 719 031c 00000000 		.word	Sample_ISR_Handler
 720 0320 00000000 		.word	Addr
 721 0324 00000000 		.word	.LC1
 722 0328 10000000 		.word	.LC2
 723 032c 00000000 		.word	volume
 724 0330 1C000000 		.word	.LC3
 725 0334 2C000000 		.word	.LC4
 726 0338 3C000000 		.word	.LC5
 727 033c 50000000 		.word	.LC6
 728 0340 00000000 		.word	file
 729 0344 60000000 		.word	.LC7
 730 0348 00000000 		.word	fsfile
 731 034c 64000000 		.word	.LC8
 732 0350 6C000000 		.word	.LC9
 733 0354 78000000 		.word	.LC10
 734 0358 88000000 		.word	.LC11
 735 035c 98000000 		.word	.LC12
 736 0360 AC000000 		.word	.LC13
 737 0364 00000000 		.word	Countdown_ISR_Handler
 738 0368 00401C46 		.word	1176256512
 739 036c 00000000 		.word	STATE
 740 0370 00000000 		.word	wait_flag
 741 0374 00000000 		.word	countdown
 742 0378 BC000000 		.word	.LC14
 743 037c D0000000 		.word	.LC15
 744 0380 00000000 		.word	id
 745 0384 00000000 		.word	data_time
 746 0388 00000000 		.word	collect_flag
 747 038c 00000000 		.word	sum
 748 0390 89888888 		.word	-2004318071
 749 0394 00000000 		.word	average
 750              	.L33:
 287:main.c        ****                     }
 288:main.c        ****                     else{
 289:main.c        ****                         average = ComputeMA(average, MA_WINDOW, az);
 751              		.loc 1 289 0
 752 0398 B34B     		ldr	r3, .L41
 753 039a 1B88     		ldrh	r3, [r3]
 754 039c 1AB2     		sxth	r2, r3
 755 039e B7F97E30 		ldrsh	r3, [r7, #126]
 756 03a2 1046     		mov	r0, r2
 757 03a4 0F21     		movs	r1, #15
 758 03a6 1A46     		mov	r2, r3
 759 03a8 FFF7FEFF 		bl	ComputeMA
 760 03ac 0346     		mov	r3, r0
 761 03ae 1A46     		mov	r2, r3
 762 03b0 AD4B     		ldr	r3, .L41
 763 03b2 1A80     		strh	r2, [r3]	@ movhi
 764              	.L32:
 290:main.c        ****                         /*sprintf(buf, "%d", average);
 291:main.c        ****                         setCursor(0,1);
 292:main.c        ****                         LCD_print(buf);*/
 293:main.c        ****                         
ARM GAS  C:\Users\jwgutter\AppData\Local\Temp\ccsveQku.s 			page 21


 294:main.c        ****                     }
 295:main.c        ****                     
 296:main.c        ****                     if(average > BOT_THRESHOLD){
 765              		.loc 1 296 0
 766 03b4 AC4B     		ldr	r3, .L41
 767 03b6 1B88     		ldrh	r3, [r3]
 768 03b8 1BB2     		sxth	r3, r3
 769 03ba 44F62062 		movw	r2, #20000
 770 03be 9342     		cmp	r3, r2
 771 03c0 3CDD     		ble	.L34
 772              	.LBB4:
 297:main.c        ****                         LED2_Write(0);
 773              		.loc 1 297 0
 774 03c2 0020     		movs	r0, #0
 775 03c4 FFF7FEFF 		bl	LED2_Write
 298:main.c        ****                         LED5_Write(1);                                          //turn LED on      
 776              		.loc 1 298 0
 777 03c8 0120     		movs	r0, #1
 778 03ca FFF7FEFF 		bl	LED5_Write
 299:main.c        ****                         STATE = LANDED;                                     //Switch to LANDED stat
 779              		.loc 1 299 0
 780 03ce A74B     		ldr	r3, .L41+4
 781 03d0 0322     		movs	r2, #3
 782 03d2 1A70     		strb	r2, [r3]
 300:main.c        ****                         #ifdef LCD
 301:main.c        ****                             setCursor(0,0);
 783              		.loc 1 301 0
 784 03d4 0020     		movs	r0, #0
 785 03d6 0021     		movs	r1, #0
 786 03d8 FFF7FEFF 		bl	setCursor
 302:main.c        ****                             clear();
 787              		.loc 1 302 0
 788 03dc FFF7FEFF 		bl	clear
 303:main.c        ****                             LCD_print("STATE: LANDED");  
 789              		.loc 1 303 0
 790 03e0 A348     		ldr	r0, .L41+8
 791 03e2 FFF7FEFF 		bl	LCD_print
 304:main.c        ****                         //I2C_LCD_print(1,0, id ,0,average);
 305:main.c        ****                         #endif
 306:main.c        ****                         char sdbuf[60] = {};
 792              		.loc 1 306 0
 793 03e6 3B46     		mov	r3, r7
 794 03e8 3C22     		movs	r2, #60
 795 03ea 1846     		mov	r0, r3
 796 03ec 0021     		movs	r1, #0
 797 03ee FFF7FEFF 		bl	memset
 307:main.c        ****                         #ifdef SD
 308:main.c        ****                             sprintf(sdbuf, "STATE: LANDED ***********\n");
 798              		.loc 1 308 0
 799 03f2 3B46     		mov	r3, r7
 800 03f4 9F4A     		ldr	r2, .L41+12
 801 03f6 1C46     		mov	r4, r3
 802 03f8 1546     		mov	r5, r2
 803 03fa 0FCD     		ldmia	r5!, {r0, r1, r2, r3}
 804 03fc 0FC4     		stmia	r4!, {r0, r1, r2, r3}
 805 03fe 95E80700 		ldmia	r5, {r0, r1, r2}
 806 0402 03C4     		stmia	r4!, {r0, r1}
ARM GAS  C:\Users\jwgutter\AppData\Local\Temp\ccsveQku.s 			page 22


 807 0404 2280     		strh	r2, [r4]	@ movhi
 808 0406 0234     		adds	r4, r4, #2
 809 0408 130C     		lsrs	r3, r2, #16
 810 040a 2370     		strb	r3, [r4]
 309:main.c        ****                             FS_Write(fsfile, sdbuf, strlen(sdbuf));
 811              		.loc 1 309 0
 812 040c 9A4B     		ldr	r3, .L41+16
 813 040e 1C68     		ldr	r4, [r3]
 814 0410 3B46     		mov	r3, r7
 815 0412 1846     		mov	r0, r3
 816 0414 FFF7FEFF 		bl	strlen
 817 0418 0246     		mov	r2, r0
 818 041a 3B46     		mov	r3, r7
 819 041c 2046     		mov	r0, r4
 820 041e 1946     		mov	r1, r3
 821 0420 FFF7FEFF 		bl	FS_Write
 310:main.c        ****                         #endif
 311:main.c        ****                         id=0;                                                   //reset sample coun
 822              		.loc 1 311 0
 823 0424 954B     		ldr	r3, .L41+20
 824 0426 0022     		movs	r2, #0
 825 0428 1A60     		str	r2, [r3]
 312:main.c        ****                         data_time = 0;
 826              		.loc 1 312 0
 827 042a 954B     		ldr	r3, .L41+24
 828 042c 0022     		movs	r2, #0
 829 042e 1A60     		str	r2, [r3]
 313:main.c        ****                         sum = 0;
 830              		.loc 1 313 0
 831 0430 944B     		ldr	r3, .L41+28
 832 0432 0022     		movs	r2, #0
 833 0434 1A60     		str	r2, [r3]
 314:main.c        ****                         average = 0;                
 834              		.loc 1 314 0
 835 0436 8C4B     		ldr	r3, .L41
 836 0438 0022     		movs	r2, #0
 837 043a 1A80     		strh	r2, [r3]	@ movhi
 838              	.L34:
 839              	.LBE4:
 315:main.c        ****                     }
 316:main.c        ****                     id++;     
 840              		.loc 1 316 0
 841 043c 8F4B     		ldr	r3, .L41+20
 842 043e 1B68     		ldr	r3, [r3]
 843 0440 0133     		adds	r3, r3, #1
 844 0442 8E4A     		ldr	r2, .L41+20
 845 0444 1360     		str	r3, [r2]
 317:main.c        ****                     
 318:main.c        ****                     /*if desired amount of samples have been collected, switch states*/
 319:main.c        ****                     if(data_time >= DATA_TIME){
 846              		.loc 1 319 0
 847 0446 8E4B     		ldr	r3, .L41+24
 848 0448 1B68     		ldr	r3, [r3]
 849 044a 41F28732 		movw	r2, #4999
 850 044e 9342     		cmp	r3, r2
 851 0450 1ADD     		ble	.L35
 320:main.c        ****                         LED2_Write(0);                                          //turn LED off
ARM GAS  C:\Users\jwgutter\AppData\Local\Temp\ccsveQku.s 			page 23


 852              		.loc 1 320 0
 853 0452 0020     		movs	r0, #0
 854 0454 FFF7FEFF 		bl	LED2_Write
 321:main.c        ****                                                             
 322:main.c        ****                         STATE = WAIT_TO_LAUNCH;                                //Switch to Waiting 
 855              		.loc 1 322 0
 856 0458 844B     		ldr	r3, .L41+4
 857 045a 0122     		movs	r2, #1
 858 045c 1A70     		strb	r2, [r3]
 323:main.c        ****                         #ifdef LCD
 324:main.c        ****                             setCursor(0,0);
 859              		.loc 1 324 0
 860 045e 0020     		movs	r0, #0
 861 0460 0021     		movs	r1, #0
 862 0462 FFF7FEFF 		bl	setCursor
 325:main.c        ****                             clear();
 863              		.loc 1 325 0
 864 0466 FFF7FEFF 		bl	clear
 326:main.c        ****                             LCD_print("STATE: WAIT");  
 865              		.loc 1 326 0
 866 046a 8748     		ldr	r0, .L41+32
 867 046c FFF7FEFF 		bl	LCD_print
 327:main.c        ****                         #endif
 328:main.c        ****                         id=0;                                                  //reset sample count
 868              		.loc 1 328 0
 869 0470 824B     		ldr	r3, .L41+20
 870 0472 0022     		movs	r2, #0
 871 0474 1A60     		str	r2, [r3]
 329:main.c        ****                         data_time = 0;
 872              		.loc 1 329 0
 873 0476 824B     		ldr	r3, .L41+24
 874 0478 0022     		movs	r2, #0
 875 047a 1A60     		str	r2, [r3]
 330:main.c        ****                         sum = 0;                                               //reset sum 
 876              		.loc 1 330 0
 877 047c 814B     		ldr	r3, .L41+28
 878 047e 0022     		movs	r2, #0
 879 0480 1A60     		str	r2, [r3]
 331:main.c        ****                         average = 0;
 880              		.loc 1 331 0
 881 0482 794B     		ldr	r3, .L41
 882 0484 0022     		movs	r2, #0
 883 0486 1A80     		strh	r2, [r3]	@ movhi
 884              	.L35:
 332:main.c        ****                        
 333:main.c        ****                     }
 334:main.c        ****                     collect_flag = 0;
 885              		.loc 1 334 0
 886 0488 804B     		ldr	r3, .L41+36
 887 048a 0022     		movs	r2, #0
 888 048c 1A70     		strb	r2, [r3]
 889 048e 2AE0     		b	.L36
 890              	.L30:
 335:main.c        ****                 }
 336:main.c        ****                 else if(wait_flag == 1){
 891              		.loc 1 336 0
 892 0490 7F4B     		ldr	r3, .L41+40
ARM GAS  C:\Users\jwgutter\AppData\Local\Temp\ccsveQku.s 			page 24


 893 0492 1B78     		ldrb	r3, [r3]	@ zero_extendqisi2
 894 0494 002B     		cmp	r3, #0
 895 0496 26D0     		beq	.L36
 896              	.LBB5:
 337:main.c        ****                        char sdbuf[60] = {};
 897              		.loc 1 337 0
 898 0498 3B46     		mov	r3, r7
 899 049a 3C22     		movs	r2, #60
 900 049c 1846     		mov	r0, r3
 901 049e 0021     		movs	r1, #0
 902 04a0 FFF7FEFF 		bl	memset
 338:main.c        ****                         #ifdef SD
 339:main.c        ****                             sprintf(sdbuf, "pressure: %d.%04d, %d\n", num, decimals, (int16)output)
 903              		.loc 1 339 0
 904 04a4 D7F89400 		ldr	r0, [r7, #148]	@ float
 905 04a8 FFF7FEFF 		bl	__aeabi_f2iz
 906 04ac 0346     		mov	r3, r0
 907 04ae 9BB2     		uxth	r3, r3
 908 04b0 1BB2     		sxth	r3, r3
 909 04b2 3A46     		mov	r2, r7
 910 04b4 0093     		str	r3, [sp]
 911 04b6 1046     		mov	r0, r2
 912 04b8 7649     		ldr	r1, .L41+44
 913 04ba D7F89020 		ldr	r2, [r7, #144]
 914 04be D7F88C30 		ldr	r3, [r7, #140]
 915 04c2 FFF7FEFF 		bl	sprintf
 340:main.c        ****                             FS_Write(fsfile, sdbuf, strlen(sdbuf));                           
 916              		.loc 1 340 0
 917 04c6 6C4B     		ldr	r3, .L41+16
 918 04c8 1C68     		ldr	r4, [r3]
 919 04ca 3B46     		mov	r3, r7
 920 04cc 1846     		mov	r0, r3
 921 04ce FFF7FEFF 		bl	strlen
 922 04d2 0246     		mov	r2, r0
 923 04d4 3B46     		mov	r3, r7
 924 04d6 2046     		mov	r0, r4
 925 04d8 1946     		mov	r1, r3
 926 04da FFF7FEFF 		bl	FS_Write
 341:main.c        ****                         #endif 
 342:main.c        ****                         wait_flag = 0;
 927              		.loc 1 342 0
 928 04de 6C4B     		ldr	r3, .L41+40
 929 04e0 0022     		movs	r2, #0
 930 04e2 1A70     		strb	r2, [r3]
 931              	.LBE5:
 343:main.c        ****                 }
 344:main.c        ****                 break;
 932              		.loc 1 344 0
 933 04e4 BFE0     		b	.L29
 934              	.L36:
 935              		.loc 1 344 0 is_stmt 0 discriminator 2
 936 04e6 BEE0     		b	.L29
 937              	.L24:
 345:main.c        ****                 
 346:main.c        ****                 case LANDED:
 347:main.c        ****                     CyDelay(5000u);
 938              		.loc 1 347 0 is_stmt 1
ARM GAS  C:\Users\jwgutter\AppData\Local\Temp\ccsveQku.s 			page 25


 939 04e8 41F28830 		movw	r0, #5000
 940 04ec FFF7FEFF 		bl	CyDelay
 348:main.c        ****                     //Solenoid_1_Write(1); //turn on solenoid 1
 349:main.c        ****                     #ifdef LCD
 350:main.c        ****                         setCursor(0,0);
 941              		.loc 1 350 0
 942 04f0 0020     		movs	r0, #0
 943 04f2 0021     		movs	r1, #0
 944 04f4 FFF7FEFF 		bl	setCursor
 351:main.c        ****                         clear();
 945              		.loc 1 351 0
 946 04f8 FFF7FEFF 		bl	clear
 352:main.c        ****                         LCD_print("VACUUMING");  
 947              		.loc 1 352 0
 948 04fc 6648     		ldr	r0, .L41+48
 949 04fe FFF7FEFF 		bl	LCD_print
 353:main.c        ****                     #endif
 354:main.c        ****                     char sdbuf[60] = {};
 950              		.loc 1 354 0
 951 0502 3B46     		mov	r3, r7
 952 0504 3C22     		movs	r2, #60
 953 0506 1846     		mov	r0, r3
 954 0508 0021     		movs	r1, #0
 955 050a FFF7FEFF 		bl	memset
 355:main.c        ****                     #ifdef SD
 356:main.c        ****                             memset(sdbuf, 0, 40);
 956              		.loc 1 356 0
 957 050e 3B46     		mov	r3, r7
 958 0510 1846     		mov	r0, r3
 959 0512 0021     		movs	r1, #0
 960 0514 2822     		movs	r2, #40
 961 0516 FFF7FEFF 		bl	memset
 357:main.c        ****                             sprintf(sdbuf, "STATE: VACUUMING ***********\n");
 962              		.loc 1 357 0
 963 051a 3B46     		mov	r3, r7
 964 051c 5F4A     		ldr	r2, .L41+52
 965 051e 1C46     		mov	r4, r3
 966 0520 1546     		mov	r5, r2
 967 0522 0FCD     		ldmia	r5!, {r0, r1, r2, r3}
 968 0524 0FC4     		stmia	r4!, {r0, r1, r2, r3}
 969 0526 95E80F00 		ldmia	r5, {r0, r1, r2, r3}
 970 052a 07C4     		stmia	r4!, {r0, r1, r2}
 971 052c 2380     		strh	r3, [r4]	@ movhi
 358:main.c        ****                             FS_Write(fsfile, sdbuf, strlen(sdbuf));
 972              		.loc 1 358 0
 973 052e 524B     		ldr	r3, .L41+16
 974 0530 1C68     		ldr	r4, [r3]
 975 0532 3B46     		mov	r3, r7
 976 0534 1846     		mov	r0, r3
 977 0536 FFF7FEFF 		bl	strlen
 978 053a 0246     		mov	r2, r0
 979 053c 3B46     		mov	r3, r7
 980 053e 2046     		mov	r0, r4
 981 0540 1946     		mov	r1, r3
 982 0542 FFF7FEFF 		bl	FS_Write
 359:main.c        ****                     #endif
 360:main.c        ****                     CyDelay(7000u);
ARM GAS  C:\Users\jwgutter\AppData\Local\Temp\ccsveQku.s 			page 26


 983              		.loc 1 360 0
 984 0546 41F65830 		movw	r0, #7000
 985 054a FFF7FEFF 		bl	CyDelay
 361:main.c        ****                     //Solenoid_1_Write(0); //turn off soleniod 1
 362:main.c        ****                     CyDelay(5000u);
 986              		.loc 1 362 0
 987 054e 41F28830 		movw	r0, #5000
 988 0552 FFF7FEFF 		bl	CyDelay
 363:main.c        ****                     STATE = RESURFACE;
 989              		.loc 1 363 0
 990 0556 454B     		ldr	r3, .L41+4
 991 0558 0422     		movs	r2, #4
 992 055a 1A70     		strb	r2, [r3]
 364:main.c        ****                     #ifdef LCD
 365:main.c        ****                         setCursor(0,0);
 993              		.loc 1 365 0
 994 055c 0020     		movs	r0, #0
 995 055e 0021     		movs	r1, #0
 996 0560 FFF7FEFF 		bl	setCursor
 366:main.c        ****                         clear();
 997              		.loc 1 366 0
 998 0564 FFF7FEFF 		bl	clear
 367:main.c        ****                         LCD_print("STATE: RESURFACING");  
 999              		.loc 1 367 0
 1000 0568 4D48     		ldr	r0, .L41+56
 1001 056a FFF7FEFF 		bl	LCD_print
 368:main.c        ****                     #endif
 369:main.c        ****                     #ifdef SD
 370:main.c        ****                             memset(sdbuf, 0, 40);
 1002              		.loc 1 370 0
 1003 056e 3B46     		mov	r3, r7
 1004 0570 1846     		mov	r0, r3
 1005 0572 0021     		movs	r1, #0
 1006 0574 2822     		movs	r2, #40
 1007 0576 FFF7FEFF 		bl	memset
 371:main.c        ****                             sprintf(sdbuf, "STATE: RESURFACING ***********\n");
 1008              		.loc 1 371 0
 1009 057a 3B46     		mov	r3, r7
 1010 057c 494A     		ldr	r2, .L41+60
 1011 057e 1C46     		mov	r4, r3
 1012 0580 1546     		mov	r5, r2
 1013 0582 0FCD     		ldmia	r5!, {r0, r1, r2, r3}
 1014 0584 0FC4     		stmia	r4!, {r0, r1, r2, r3}
 1015 0586 95E80F00 		ldmia	r5, {r0, r1, r2, r3}
 1016 058a 84E80F00 		stmia	r4, {r0, r1, r2, r3}
 372:main.c        ****                             FS_Write(fsfile, sdbuf, strlen(sdbuf));
 1017              		.loc 1 372 0
 1018 058e 3A4B     		ldr	r3, .L41+16
 1019 0590 1C68     		ldr	r4, [r3]
 1020 0592 3B46     		mov	r3, r7
 1021 0594 1846     		mov	r0, r3
 1022 0596 FFF7FEFF 		bl	strlen
 1023 059a 0246     		mov	r2, r0
 1024 059c 3B46     		mov	r3, r7
 1025 059e 2046     		mov	r0, r4
 1026 05a0 1946     		mov	r1, r3
 1027 05a2 FFF7FEFF 		bl	FS_Write
ARM GAS  C:\Users\jwgutter\AppData\Local\Temp\ccsveQku.s 			page 27


 373:main.c        ****                     #endif
 374:main.c        ****                 break;
 1028              		.loc 1 374 0
 1029 05a6 5EE0     		b	.L29
 1030              	.L25:
 375:main.c        ****                 
 376:main.c        ****             case RESURFACE:
 377:main.c        ****                 //CyDelay(4000u);
 378:main.c        ****                 Solenoid_1_Write(1); //turn on solendiod 2
 1031              		.loc 1 378 0
 1032 05a8 0120     		movs	r0, #1
 1033 05aa FFF7FEFF 		bl	Solenoid_1_Write
 379:main.c        ****                 CyDelay(15000u);
 1034              		.loc 1 379 0
 1035 05ae 43F69820 		movw	r0, #15000
 1036 05b2 FFF7FEFF 		bl	CyDelay
 380:main.c        ****                 Solenoid_1_Write(0); //turn off solenoid 2
 1037              		.loc 1 380 0
 1038 05b6 0020     		movs	r0, #0
 1039 05b8 FFF7FEFF 		bl	Solenoid_1_Write
 381:main.c        ****                 //check pressure sensor to confirm we are at the surface
 382:main.c        ****                 CyDelay(10000u);                                //wait 10 seconds to lift, for test
 1040              		.loc 1 382 0
 1041 05bc 42F21070 		movw	r0, #10000
 1042 05c0 FFF7FEFF 		bl	CyDelay
 383:main.c        ****                 STATE = TRANSMIT;
 1043              		.loc 1 383 0
 1044 05c4 294B     		ldr	r3, .L41+4
 1045 05c6 0522     		movs	r2, #5
 1046 05c8 1A70     		strb	r2, [r3]
 384:main.c        ****                 #ifdef LCD
 385:main.c        ****                     setCursor(0,0);
 1047              		.loc 1 385 0
 1048 05ca 0020     		movs	r0, #0
 1049 05cc 0021     		movs	r1, #0
 1050 05ce FFF7FEFF 		bl	setCursor
 386:main.c        ****                     clear();
 1051              		.loc 1 386 0
 1052 05d2 FFF7FEFF 		bl	clear
 387:main.c        ****                     LCD_print("TRANSMIT");  
 1053              		.loc 1 387 0
 1054 05d6 3448     		ldr	r0, .L41+64
 1055 05d8 FFF7FEFF 		bl	LCD_print
 388:main.c        ****                 #endif
 389:main.c        ****                 #ifdef SD
 390:main.c        ****                             memset(sdbuf, 0, 40);
 1056              		.loc 1 390 0
 1057 05dc 3B46     		mov	r3, r7
 1058 05de 1846     		mov	r0, r3
 1059 05e0 0021     		movs	r1, #0
 1060 05e2 2822     		movs	r2, #40
 1061 05e4 FFF7FEFF 		bl	memset
 391:main.c        ****                             sprintf(sdbuf, "STATE: TRANSMIT ***********\n");
 1062              		.loc 1 391 0
 1063 05e8 3B46     		mov	r3, r7
 1064 05ea 304A     		ldr	r2, .L41+68
 1065 05ec 1C46     		mov	r4, r3
ARM GAS  C:\Users\jwgutter\AppData\Local\Temp\ccsveQku.s 			page 28


 1066 05ee 1546     		mov	r5, r2
 1067 05f0 0FCD     		ldmia	r5!, {r0, r1, r2, r3}
 1068 05f2 0FC4     		stmia	r4!, {r0, r1, r2, r3}
 1069 05f4 95E80F00 		ldmia	r5, {r0, r1, r2, r3}
 1070 05f8 07C4     		stmia	r4!, {r0, r1, r2}
 1071 05fa 2370     		strb	r3, [r4]
 392:main.c        ****                             FS_Write(fsfile, sdbuf, strlen(sdbuf));
 1072              		.loc 1 392 0
 1073 05fc 1E4B     		ldr	r3, .L41+16
 1074 05fe 1C68     		ldr	r4, [r3]
 1075 0600 3B46     		mov	r3, r7
 1076 0602 1846     		mov	r0, r3
 1077 0604 FFF7FEFF 		bl	strlen
 1078 0608 0246     		mov	r2, r0
 1079 060a 3B46     		mov	r3, r7
 1080 060c 2046     		mov	r0, r4
 1081 060e 1946     		mov	r1, r3
 1082 0610 FFF7FEFF 		bl	FS_Write
 393:main.c        ****                     #endif
 394:main.c        ****                 break;
 1083              		.loc 1 394 0
 1084 0614 27E0     		b	.L29
 1085              	.L26:
 395:main.c        ****             case TRANSMIT:
 396:main.c        ****                 LED2_Write(1);
 1086              		.loc 1 396 0
 1087 0616 0120     		movs	r0, #1
 1088 0618 FFF7FEFF 		bl	LED2_Write
 397:main.c        ****                 LED5_Write(1);
 1089              		.loc 1 397 0
 1090 061c 0120     		movs	r0, #1
 1091 061e FFF7FEFF 		bl	LED5_Write
 398:main.c        ****                 #ifdef SD                                   //close old file, open new one
 399:main.c        ****                     FS_FClose(fsfile);
 1092              		.loc 1 399 0
 1093 0622 154B     		ldr	r3, .L41+16
 1094 0624 1B68     		ldr	r3, [r3]
 1095 0626 1846     		mov	r0, r3
 1096 0628 FFF7FEFF 		bl	FS_FClose
 400:main.c        ****                     sprintf(file, "test%d.txt", ++testnum);
 1097              		.loc 1 400 0
 1098 062c 204B     		ldr	r3, .L41+72
 1099 062e 1B78     		ldrb	r3, [r3]	@ zero_extendqisi2
 1100 0630 0133     		adds	r3, r3, #1
 1101 0632 DAB2     		uxtb	r2, r3
 1102 0634 1E4B     		ldr	r3, .L41+72
 1103 0636 1A70     		strb	r2, [r3]
 1104 0638 1D4B     		ldr	r3, .L41+72
 1105 063a 1B78     		ldrb	r3, [r3]	@ zero_extendqisi2
 1106 063c 1D48     		ldr	r0, .L41+76
 1107 063e 1E49     		ldr	r1, .L41+80
 1108 0640 1A46     		mov	r2, r3
 1109 0642 FFF7FEFF 		bl	sprintf
 401:main.c        ****                     fsfile = FS_FOpen(file, "w");
 1110              		.loc 1 401 0
 1111 0646 1B48     		ldr	r0, .L41+76
 1112 0648 1C49     		ldr	r1, .L41+84
ARM GAS  C:\Users\jwgutter\AppData\Local\Temp\ccsveQku.s 			page 29


 1113 064a FFF7FEFF 		bl	FS_FOpen
 1114 064e 0246     		mov	r2, r0
 1115 0650 094B     		ldr	r3, .L41+16
 1116 0652 1A60     		str	r2, [r3]
 402:main.c        ****                 #endif 
 403:main.c        ****                 CyDelay(15000u);
 1117              		.loc 1 403 0
 1118 0654 43F69820 		movw	r0, #15000
 1119 0658 FFF7FEFF 		bl	CyDelay
 404:main.c        ****                 STATE = WAIT_TO_LAUNCH;
 1120              		.loc 1 404 0
 1121 065c 034B     		ldr	r3, .L41+4
 1122 065e 0122     		movs	r2, #1
 1123 0660 1A70     		strb	r2, [r3]
 405:main.c        ****                 
 406:main.c        **** //            case LANDED:
 407:main.c        **** //                CyDelay(1000u);                             // delay a bit
 408:main.c        **** //                LED2_Write(1);                              // turn on other LED to indicate land
 409:main.c        **** //                STATE = WAIT_TO_LAUNCH;
 410:main.c        **** //                #ifdef LCD
 411:main.c        **** //                    setCursor(0,0);
 412:main.c        **** //                    clear();
 413:main.c        **** //                    LCD_print("STATE: WAIT");
 414:main.c        **** //                #endif 
 415:main.c        **** //                #ifdef SD                                   // close old file, open new one
 416:main.c        **** //                    FS_FClose(fsfile);
 417:main.c        **** //                    sprintf(file, "test%d.txt", ++testnum);
 418:main.c        **** //                    fsfile = FS_FOpen(file, "w");
 419:main.c        **** //                #endif 
 420:main.c        ****                 break;
 1124              		.loc 1 420 0
 1125 0662 00E0     		b	.L29
 1126              	.L38:
 421:main.c        ****                 
 422:main.c        ****             default:
 423:main.c        ****                 break;
 1127              		.loc 1 423 0
 1128 0664 00BF     		nop
 1129              	.L29:
 1130              	.LBE3:
 424:main.c        ****         
 425:main.c        ****         
 426:main.c        ****         }
 427:main.c        ****         
 428:main.c        ****     }
 1131              		.loc 1 428 0 discriminator 3
 1132 0666 8BE5     		b	.L37
 1133              	.L42:
 1134              		.align	2
 1135              	.L41:
 1136 0668 00000000 		.word	average
 1137 066c 00000000 		.word	STATE
 1138 0670 E0000000 		.word	.LC16
 1139 0674 F0000000 		.word	.LC17
 1140 0678 00000000 		.word	fsfile
 1141 067c 00000000 		.word	id
 1142 0680 00000000 		.word	data_time
ARM GAS  C:\Users\jwgutter\AppData\Local\Temp\ccsveQku.s 			page 30


 1143 0684 00000000 		.word	sum
 1144 0688 0C010000 		.word	.LC18
 1145 068c 00000000 		.word	collect_flag
 1146 0690 00000000 		.word	wait_flag
 1147 0694 18010000 		.word	.LC19
 1148 0698 30010000 		.word	.LC20
 1149 069c 3C010000 		.word	.LC21
 1150 06a0 5C010000 		.word	.LC22
 1151 06a4 70010000 		.word	.LC23
 1152 06a8 90010000 		.word	.LC24
 1153 06ac 9C010000 		.word	.LC25
 1154 06b0 00000000 		.word	testnum
 1155 06b4 00000000 		.word	file
 1156 06b8 BC010000 		.word	.LC26
 1157 06bc 60000000 		.word	.LC7
 1158              		.cfi_endproc
 1159              	.LFE65:
 1160              		.size	main, .-main
 1161              		.text
 1162              	.Letext0:
 1163              		.file 2 "c:\\program files (x86)\\cypress\\psoc creator\\4.0\\psoc creator\\import\\gnu\\arm\\4.9.
 1164              		.file 3 "c:\\program files (x86)\\cypress\\psoc creator\\4.0\\psoc creator\\import\\gnu\\arm\\4.9.
 1165              		.file 4 "Generated_Source\\PSoC5/cytypes.h"
 1166              		.file 5 ".\\emFile_V322c\\Code\\Include\\PSoC5/FS_Types.h"
 1167              		.file 6 "Generated_Source\\PSoC5/core_cm3.h"
 1168              		.file 7 "./mpu6050.h"