ARM GAS  C:\Users\jwgutter\AppData\Local\Temp\ccGcOqDB.s 			page 1


   1              		.syntax unified
   2              		.cpu cortex-m3
   3              		.fpu softvfp
   4              		.eabi_attribute 20, 1
   5              		.eabi_attribute 21, 1
   6              		.eabi_attribute 23, 3
   7              		.eabi_attribute 24, 1
   8              		.eabi_attribute 25, 1
   9              		.eabi_attribute 26, 1
  10              		.eabi_attribute 30, 6
  11              		.eabi_attribute 34, 1
  12              		.eabi_attribute 18, 4
  13              		.thumb
  14              		.file	"mpu6050.c"
  15              		.text
  16              	.Ltext0:
  17              		.cfi_sections	.debug_frame
  18              		.comm	devAddr,1,1
  19              		.comm	buffer,22,4
  20              		.section	.text.MPU6050_init,"ax",%progbits
  21              		.align	2
  22              		.global	MPU6050_init
  23              		.thumb
  24              		.thumb_func
  25              		.type	MPU6050_init, %function
  26              	MPU6050_init:
  27              	.LFB0:
  28              		.file 1 "mpu6050.c"
   1:mpu6050.c     **** // I2Cdev library collection - MPU6050 I2C device class
   2:mpu6050.c     **** // Based on InvenSense MPU-6050 register map document rev. 2.0, 5/19/2011 (RM-MPU-6000A-00)
   3:mpu6050.c     **** // 8/24/2011 by Jeff Rowberg <jeff@rowberg.net>
   4:mpu6050.c     **** // Updates should (hopefully) always be available at https://github.com/jrowberg/i2cdevlib
   5:mpu6050.c     **** //
   6:mpu6050.c     **** // Changelog:
   7:mpu6050.c     **** // 26/May/2014: C version to be used on PSoC Creator (www.cypress.com) by Hernán Sánchez
   8:mpu6050.c     **** //     ... - ongoing debug release
   9:mpu6050.c     **** 
  10:mpu6050.c     **** // NOTE: THIS IS ONLY A PARIAL RELEASE. THIS DEVICE CLASS IS CURRENTLY UNDERGOING ACTIVE
  11:mpu6050.c     **** // DEVELOPMENT AND IS STILL MISSING SOME IMPORTANT FEATURES. PLEASE KEEP THIS IN MIND IF
  12:mpu6050.c     **** // YOU DECIDE TO USE THIS PARTICULAR CODE FOR ANYTHING.
  13:mpu6050.c     **** 
  14:mpu6050.c     **** /* ============================================
  15:mpu6050.c     **** I2Cdev device library code is placed under the MIT license
  16:mpu6050.c     **** Copyright (c) 2012 Jeff Rowberg
  17:mpu6050.c     **** 
  18:mpu6050.c     **** Permission is hereby granted, free of charge, to any person obtaining a copy
  19:mpu6050.c     **** of this software and associated documentation files (the "Software"), to deal
  20:mpu6050.c     **** in the Software without restriction, including without limitation the rights
  21:mpu6050.c     **** to use, copy, modify, merge, publish, distribute, sublicense, and/or sell
  22:mpu6050.c     **** copies of the Software, and to permit persons to whom the Software is
  23:mpu6050.c     **** furnished to do so, subject to the following conditions:
  24:mpu6050.c     **** 
  25:mpu6050.c     **** The above copyright notice and this permission notice shall be included in
  26:mpu6050.c     **** all copies or substantial portions of the Software.
  27:mpu6050.c     **** 
  28:mpu6050.c     **** THE SOFTWARE IS PROVIDED "AS IS", WITHOUT WARRANTY OF ANY KIND, EXPRESS OR
  29:mpu6050.c     **** IMPLIED, INCLUDING BUT NOT LIMITED TO THE WARRANTIES OF MERCHANTABILITY,
ARM GAS  C:\Users\jwgutter\AppData\Local\Temp\ccGcOqDB.s 			page 2


  30:mpu6050.c     **** FITNESS FOR A PARTICULAR PURPOSE AND NONINFRINGEMENT. IN NO EVENT SHALL THE
  31:mpu6050.c     **** AUTHORS OR COPYRIGHT HOLDERS BE LIABLE FOR ANY CLAIM, DAMAGES OR OTHER
  32:mpu6050.c     **** LIABILITY, WHETHER IN AN ACTION OF CONTRACT, TORT OR OTHERWISE, ARISING FROM,
  33:mpu6050.c     **** OUT OF OR IN CONNECTION WITH THE SOFTWARE OR THE USE OR OTHER DEALINGS IN
  34:mpu6050.c     **** THE SOFTWARE.
  35:mpu6050.c     **** ===============================================
  36:mpu6050.c     **** */
  37:mpu6050.c     **** 
  38:mpu6050.c     **** 
  39:mpu6050.c     **** #include <stdint.h>
  40:mpu6050.c     **** #include "mpu6050.h"
  41:mpu6050.c     **** 
  42:mpu6050.c     **** /** Default constructor, uses default I2C address.
  43:mpu6050.c     ****  * @see MPU6050_DEFAULT_ADDRESS
  44:mpu6050.c     ****  */
  45:mpu6050.c     **** void MPU6050_init() {
  29              		.loc 1 45 0
  30              		.cfi_startproc
  31              		@ args = 0, pretend = 0, frame = 0
  32              		@ frame_needed = 1, uses_anonymous_args = 0
  33              		@ link register save eliminated.
  34 0000 80B4     		push	{r7}
  35              		.cfi_def_cfa_offset 4
  36              		.cfi_offset 7, -4
  37 0002 00AF     		add	r7, sp, #0
  38              		.cfi_def_cfa_register 7
  46:mpu6050.c     ****     devAddr = MPU6050_DEFAULT_ADDRESS;
  39              		.loc 1 46 0
  40 0004 034B     		ldr	r3, .L2
  41 0006 6822     		movs	r2, #104
  42 0008 1A70     		strb	r2, [r3]
  47:mpu6050.c     **** }
  43              		.loc 1 47 0
  44 000a BD46     		mov	sp, r7
  45              		.cfi_def_cfa_register 13
  46              		@ sp needed
  47 000c 5DF8047B 		ldr	r7, [sp], #4
  48              		.cfi_restore 7
  49              		.cfi_def_cfa_offset 0
  50 0010 7047     		bx	lr
  51              	.L3:
  52 0012 00BF     		.align	2
  53              	.L2:
  54 0014 00000000 		.word	devAddr
  55              		.cfi_endproc
  56              	.LFE0:
  57              		.size	MPU6050_init, .-MPU6050_init
  58              		.section	.text.I2C_MPU6050_I2CAddress,"ax",%progbits
  59              		.align	2
  60              		.global	I2C_MPU6050_I2CAddress
  61              		.thumb
  62              		.thumb_func
  63              		.type	I2C_MPU6050_I2CAddress, %function
  64              	I2C_MPU6050_I2CAddress:
  65              	.LFB1:
  48:mpu6050.c     **** 
  49:mpu6050.c     **** /** Specific address constructor.
ARM GAS  C:\Users\jwgutter\AppData\Local\Temp\ccGcOqDB.s 			page 3


  50:mpu6050.c     ****  * @param address I2C address
  51:mpu6050.c     ****  * @see MPU6050_DEFAULT_ADDRESS
  52:mpu6050.c     ****  * @see MPU6050_ADDRESS_AD0_LOW
  53:mpu6050.c     ****  * @see MPU6050_ADDRESS_AD0_HIGH
  54:mpu6050.c     ****  */
  55:mpu6050.c     **** void I2C_MPU6050_I2CAddress(uint8_t address) {
  66              		.loc 1 55 0
  67              		.cfi_startproc
  68              		@ args = 0, pretend = 0, frame = 8
  69              		@ frame_needed = 1, uses_anonymous_args = 0
  70              		@ link register save eliminated.
  71 0000 80B4     		push	{r7}
  72              		.cfi_def_cfa_offset 4
  73              		.cfi_offset 7, -4
  74 0002 83B0     		sub	sp, sp, #12
  75              		.cfi_def_cfa_offset 16
  76 0004 00AF     		add	r7, sp, #0
  77              		.cfi_def_cfa_register 7
  78 0006 0346     		mov	r3, r0
  79 0008 FB71     		strb	r3, [r7, #7]
  56:mpu6050.c     ****     devAddr = address;
  80              		.loc 1 56 0
  81 000a 044A     		ldr	r2, .L5
  82 000c FB79     		ldrb	r3, [r7, #7]
  83 000e 1370     		strb	r3, [r2]
  57:mpu6050.c     **** }
  84              		.loc 1 57 0
  85 0010 0C37     		adds	r7, r7, #12
  86              		.cfi_def_cfa_offset 4
  87 0012 BD46     		mov	sp, r7
  88              		.cfi_def_cfa_register 13
  89              		@ sp needed
  90 0014 5DF8047B 		ldr	r7, [sp], #4
  91              		.cfi_restore 7
  92              		.cfi_def_cfa_offset 0
  93 0018 7047     		bx	lr
  94              	.L6:
  95 001a 00BF     		.align	2
  96              	.L5:
  97 001c 00000000 		.word	devAddr
  98              		.cfi_endproc
  99              	.LFE1:
 100              		.size	I2C_MPU6050_I2CAddress, .-I2C_MPU6050_I2CAddress
 101              		.section	.text.MPU6050_initialize,"ax",%progbits
 102              		.align	2
 103              		.global	MPU6050_initialize
 104              		.thumb
 105              		.thumb_func
 106              		.type	MPU6050_initialize, %function
 107              	MPU6050_initialize:
 108              	.LFB2:
  58:mpu6050.c     **** 
  59:mpu6050.c     **** /** Power on and prepare for general usage.
  60:mpu6050.c     ****  * This will activate the device and take it out of sleep mode (which must be done
  61:mpu6050.c     ****  * after start-up). This function also sets both the accelerometer and the gyroscope
  62:mpu6050.c     ****  * to their most sensitive settings, namely +/- 2g and +/- 250 degrees/sec, and sets
  63:mpu6050.c     ****  * the clock source to use the X Gyro for reference, which is slightly better than
ARM GAS  C:\Users\jwgutter\AppData\Local\Temp\ccGcOqDB.s 			page 4


  64:mpu6050.c     ****  * the default internal clock source.
  65:mpu6050.c     ****  */
  66:mpu6050.c     **** void MPU6050_initialize() {
 109              		.loc 1 66 0
 110              		.cfi_startproc
 111              		@ args = 0, pretend = 0, frame = 0
 112              		@ frame_needed = 1, uses_anonymous_args = 0
 113 0000 80B5     		push	{r7, lr}
 114              		.cfi_def_cfa_offset 8
 115              		.cfi_offset 7, -8
 116              		.cfi_offset 14, -4
 117 0002 00AF     		add	r7, sp, #0
 118              		.cfi_def_cfa_register 7
  67:mpu6050.c     ****     MPU6050_setClockSource(MPU6050_CLOCK_PLL_XGYRO);
 119              		.loc 1 67 0
 120 0004 0120     		movs	r0, #1
 121 0006 FFF7FEFF 		bl	MPU6050_setClockSource
  68:mpu6050.c     ****     MPU6050_setFullScaleGyroRange(MPU6050_GYRO_FS_250);
 122              		.loc 1 68 0
 123 000a 0020     		movs	r0, #0
 124 000c FFF7FEFF 		bl	MPU6050_setFullScaleGyroRange
  69:mpu6050.c     ****     MPU6050_setFullScaleAccelRange(MPU6050_ACCEL_FS_2);
 125              		.loc 1 69 0
 126 0010 0020     		movs	r0, #0
 127 0012 FFF7FEFF 		bl	MPU6050_setFullScaleAccelRange
  70:mpu6050.c     ****     MPU6050_setSleepEnabled(false); // thanks to Jack Elston for pointing this one out!
 128              		.loc 1 70 0
 129 0016 0020     		movs	r0, #0
 130 0018 FFF7FEFF 		bl	MPU6050_setSleepEnabled
  71:mpu6050.c     **** }
 131              		.loc 1 71 0
 132 001c 80BD     		pop	{r7, pc}
 133              		.cfi_endproc
 134              	.LFE2:
 135              		.size	MPU6050_initialize, .-MPU6050_initialize
 136 001e 00BF     		.section	.text.MPU6050_testConnection,"ax",%progbits
 137              		.align	2
 138              		.global	MPU6050_testConnection
 139              		.thumb
 140              		.thumb_func
 141              		.type	MPU6050_testConnection, %function
 142              	MPU6050_testConnection:
 143              	.LFB3:
  72:mpu6050.c     **** 
  73:mpu6050.c     **** /** Verify the I2C connection.
  74:mpu6050.c     ****  * Make sure the device is connected and responds as expected.
  75:mpu6050.c     ****  * @return True if connection is valid, false otherwise
  76:mpu6050.c     ****  */
  77:mpu6050.c     **** bool MPU6050_testConnection() {
 144              		.loc 1 77 0
 145              		.cfi_startproc
 146              		@ args = 0, pretend = 0, frame = 0
 147              		@ frame_needed = 1, uses_anonymous_args = 0
 148 0000 80B5     		push	{r7, lr}
 149              		.cfi_def_cfa_offset 8
 150              		.cfi_offset 7, -8
 151              		.cfi_offset 14, -4
ARM GAS  C:\Users\jwgutter\AppData\Local\Temp\ccGcOqDB.s 			page 5


 152 0002 00AF     		add	r7, sp, #0
 153              		.cfi_def_cfa_register 7
  78:mpu6050.c     ****     return MPU6050_getDeviceID() == 0x34;
 154              		.loc 1 78 0
 155 0004 FFF7FEFF 		bl	MPU6050_getDeviceID
 156 0008 0346     		mov	r3, r0
 157 000a 342B     		cmp	r3, #52
 158 000c 0CBF     		ite	eq
 159 000e 0123     		moveq	r3, #1
 160 0010 0023     		movne	r3, #0
 161 0012 DBB2     		uxtb	r3, r3
  79:mpu6050.c     **** }
 162              		.loc 1 79 0
 163 0014 1846     		mov	r0, r3
 164 0016 80BD     		pop	{r7, pc}
 165              		.cfi_endproc
 166              	.LFE3:
 167              		.size	MPU6050_testConnection, .-MPU6050_testConnection
 168              		.section	.text.MPU6050_getAuxVDDIOLevel,"ax",%progbits
 169              		.align	2
 170              		.global	MPU6050_getAuxVDDIOLevel
 171              		.thumb
 172              		.thumb_func
 173              		.type	MPU6050_getAuxVDDIOLevel, %function
 174              	MPU6050_getAuxVDDIOLevel:
 175              	.LFB4:
  80:mpu6050.c     **** 
  81:mpu6050.c     **** // AUX_VDDIO register (InvenSense demo code calls this RA_*G_OFFS_TC)
  82:mpu6050.c     **** 
  83:mpu6050.c     **** /** Get the auxiliary I2C supply voltage level.
  84:mpu6050.c     ****  * When set to 1, the auxiliary I2C bus high logic level is VDD. When cleared to
  85:mpu6050.c     ****  * 0, the auxiliary I2C bus high logic level is VLOGIC. This does not apply to
  86:mpu6050.c     ****  * the MPU-6000, which does not have a VLOGIC pin.
  87:mpu6050.c     ****  * @return I2C supply voltage level (0=VLOGIC, 1=VDD)
  88:mpu6050.c     ****  */
  89:mpu6050.c     **** uint8_t MPU6050_getAuxVDDIOLevel() {
 176              		.loc 1 89 0
 177              		.cfi_startproc
 178              		@ args = 0, pretend = 0, frame = 0
 179              		@ frame_needed = 1, uses_anonymous_args = 0
 180 0000 80B5     		push	{r7, lr}
 181              		.cfi_def_cfa_offset 8
 182              		.cfi_offset 7, -8
 183              		.cfi_offset 14, -4
 184 0002 00AF     		add	r7, sp, #0
 185              		.cfi_def_cfa_register 7
  90:mpu6050.c     ****     I2CReadBit(devAddr, MPU6050_RA_YG_OFFS_TC, MPU6050_TC_PWR_MODE_BIT, buffer);
 186              		.loc 1 90 0
 187 0004 054B     		ldr	r3, .L12
 188 0006 1B78     		ldrb	r3, [r3]	@ zero_extendqisi2
 189 0008 1846     		mov	r0, r3
 190 000a 0121     		movs	r1, #1
 191 000c 0722     		movs	r2, #7
 192 000e 044B     		ldr	r3, .L12+4
 193 0010 FFF7FEFF 		bl	I2CReadBit
  91:mpu6050.c     ****     return buffer[0];
 194              		.loc 1 91 0
ARM GAS  C:\Users\jwgutter\AppData\Local\Temp\ccGcOqDB.s 			page 6


 195 0014 024B     		ldr	r3, .L12+4
 196 0016 1B78     		ldrb	r3, [r3]	@ zero_extendqisi2
  92:mpu6050.c     **** }
 197              		.loc 1 92 0
 198 0018 1846     		mov	r0, r3
 199 001a 80BD     		pop	{r7, pc}
 200              	.L13:
 201              		.align	2
 202              	.L12:
 203 001c 00000000 		.word	devAddr
 204 0020 00000000 		.word	buffer
 205              		.cfi_endproc
 206              	.LFE4:
 207              		.size	MPU6050_getAuxVDDIOLevel, .-MPU6050_getAuxVDDIOLevel
 208              		.section	.text.MPU6050_setAuxVDDIOLevel,"ax",%progbits
 209              		.align	2
 210              		.global	MPU6050_setAuxVDDIOLevel
 211              		.thumb
 212              		.thumb_func
 213              		.type	MPU6050_setAuxVDDIOLevel, %function
 214              	MPU6050_setAuxVDDIOLevel:
 215              	.LFB5:
  93:mpu6050.c     **** /** Set the auxiliary I2C supply voltage level.
  94:mpu6050.c     ****  * When set to 1, the auxiliary I2C bus high logic level is VDD. When cleared to
  95:mpu6050.c     ****  * 0, the auxiliary I2C bus high logic level is VLOGIC. This does not apply to
  96:mpu6050.c     ****  * the MPU-6000, which does not have a VLOGIC pin.
  97:mpu6050.c     ****  * @param level I2C supply voltage level (0=VLOGIC, 1=VDD)
  98:mpu6050.c     ****  */
  99:mpu6050.c     **** void MPU6050_setAuxVDDIOLevel(uint8_t level) {
 216              		.loc 1 99 0
 217              		.cfi_startproc
 218              		@ args = 0, pretend = 0, frame = 8
 219              		@ frame_needed = 1, uses_anonymous_args = 0
 220 0000 80B5     		push	{r7, lr}
 221              		.cfi_def_cfa_offset 8
 222              		.cfi_offset 7, -8
 223              		.cfi_offset 14, -4
 224 0002 82B0     		sub	sp, sp, #8
 225              		.cfi_def_cfa_offset 16
 226 0004 00AF     		add	r7, sp, #0
 227              		.cfi_def_cfa_register 7
 228 0006 0346     		mov	r3, r0
 229 0008 FB71     		strb	r3, [r7, #7]
 100:mpu6050.c     ****     I2CWriteBit(devAddr, MPU6050_RA_YG_OFFS_TC, MPU6050_TC_PWR_MODE_BIT, level);
 230              		.loc 1 100 0
 231 000a 054B     		ldr	r3, .L15
 232 000c 1A78     		ldrb	r2, [r3]	@ zero_extendqisi2
 233 000e FB79     		ldrb	r3, [r7, #7]	@ zero_extendqisi2
 234 0010 1046     		mov	r0, r2
 235 0012 0121     		movs	r1, #1
 236 0014 0722     		movs	r2, #7
 237 0016 FFF7FEFF 		bl	I2CWriteBit
 101:mpu6050.c     **** }
 238              		.loc 1 101 0
 239 001a 0837     		adds	r7, r7, #8
 240              		.cfi_def_cfa_offset 8
 241 001c BD46     		mov	sp, r7
ARM GAS  C:\Users\jwgutter\AppData\Local\Temp\ccGcOqDB.s 			page 7


 242              		.cfi_def_cfa_register 13
 243              		@ sp needed
 244 001e 80BD     		pop	{r7, pc}
 245              	.L16:
 246              		.align	2
 247              	.L15:
 248 0020 00000000 		.word	devAddr
 249              		.cfi_endproc
 250              	.LFE5:
 251              		.size	MPU6050_setAuxVDDIOLevel, .-MPU6050_setAuxVDDIOLevel
 252              		.section	.text.MPU6050_getRate,"ax",%progbits
 253              		.align	2
 254              		.global	MPU6050_getRate
 255              		.thumb
 256              		.thumb_func
 257              		.type	MPU6050_getRate, %function
 258              	MPU6050_getRate:
 259              	.LFB6:
 102:mpu6050.c     **** 
 103:mpu6050.c     **** // SMPLRT_DIV register
 104:mpu6050.c     **** 
 105:mpu6050.c     **** /** Get gyroscope output rate divider.
 106:mpu6050.c     ****  * The sensor register output, FIFO output, DMP sampling, Motion detection, Zero
 107:mpu6050.c     ****  * Motion detection, and Free Fall detection are all based on the Sample Rate.
 108:mpu6050.c     ****  * The Sample Rate is generated by dividing the gyroscope output rate by
 109:mpu6050.c     ****  * SMPLRT_DIV:
 110:mpu6050.c     ****  *
 111:mpu6050.c     ****  * Sample Rate = Gyroscope Output Rate / (1 + SMPLRT_DIV)
 112:mpu6050.c     ****  *
 113:mpu6050.c     ****  * where Gyroscope Output Rate = 8kHz when the DLPF is disabled (DLPF_CFG = 0 or
 114:mpu6050.c     ****  * 7), and 1kHz when the DLPF is enabled (see Register 26).
 115:mpu6050.c     ****  *
 116:mpu6050.c     ****  * Note: The accelerometer output rate is 1kHz. This means that for a Sample
 117:mpu6050.c     ****  * Rate greater than 1kHz, the same accelerometer sample may be output to the
 118:mpu6050.c     ****  * FIFO, DMP, and sensor registers more than once.
 119:mpu6050.c     ****  *
 120:mpu6050.c     ****  * For a diagram of the gyroscope and accelerometer signal paths, see Section 8
 121:mpu6050.c     ****  * of the MPU-6000/MPU-6050 Product Specification document.
 122:mpu6050.c     ****  *
 123:mpu6050.c     ****  * @return Current sample rate
 124:mpu6050.c     ****  * @see MPU6050_RA_SMPLRT_DIV
 125:mpu6050.c     ****  */
 126:mpu6050.c     **** uint8_t MPU6050_getRate() {
 260              		.loc 1 126 0
 261              		.cfi_startproc
 262              		@ args = 0, pretend = 0, frame = 0
 263              		@ frame_needed = 1, uses_anonymous_args = 0
 264 0000 80B5     		push	{r7, lr}
 265              		.cfi_def_cfa_offset 8
 266              		.cfi_offset 7, -8
 267              		.cfi_offset 14, -4
 268 0002 00AF     		add	r7, sp, #0
 269              		.cfi_def_cfa_register 7
 127:mpu6050.c     ****     I2CReadByte(devAddr, MPU6050_RA_SMPLRT_DIV, buffer);
 270              		.loc 1 127 0
 271 0004 054B     		ldr	r3, .L19
 272 0006 1B78     		ldrb	r3, [r3]	@ zero_extendqisi2
ARM GAS  C:\Users\jwgutter\AppData\Local\Temp\ccGcOqDB.s 			page 8


 273 0008 1846     		mov	r0, r3
 274 000a 1921     		movs	r1, #25
 275 000c 044A     		ldr	r2, .L19+4
 276 000e FFF7FEFF 		bl	I2CReadByte
 128:mpu6050.c     ****     return buffer[0];
 277              		.loc 1 128 0
 278 0012 034B     		ldr	r3, .L19+4
 279 0014 1B78     		ldrb	r3, [r3]	@ zero_extendqisi2
 129:mpu6050.c     **** }
 280              		.loc 1 129 0
 281 0016 1846     		mov	r0, r3
 282 0018 80BD     		pop	{r7, pc}
 283              	.L20:
 284 001a 00BF     		.align	2
 285              	.L19:
 286 001c 00000000 		.word	devAddr
 287 0020 00000000 		.word	buffer
 288              		.cfi_endproc
 289              	.LFE6:
 290              		.size	MPU6050_getRate, .-MPU6050_getRate
 291              		.section	.text.MPU6050_setRate,"ax",%progbits
 292              		.align	2
 293              		.global	MPU6050_setRate
 294              		.thumb
 295              		.thumb_func
 296              		.type	MPU6050_setRate, %function
 297              	MPU6050_setRate:
 298              	.LFB7:
 130:mpu6050.c     **** /** Set gyroscope sample rate divider.
 131:mpu6050.c     ****  * @param rate New sample rate divider
 132:mpu6050.c     ****  * @see getRate()
 133:mpu6050.c     ****  * @see MPU6050_RA_SMPLRT_DIV
 134:mpu6050.c     ****  */
 135:mpu6050.c     **** void MPU6050_setRate(uint8_t rate) {
 299              		.loc 1 135 0
 300              		.cfi_startproc
 301              		@ args = 0, pretend = 0, frame = 8
 302              		@ frame_needed = 1, uses_anonymous_args = 0
 303 0000 80B5     		push	{r7, lr}
 304              		.cfi_def_cfa_offset 8
 305              		.cfi_offset 7, -8
 306              		.cfi_offset 14, -4
 307 0002 82B0     		sub	sp, sp, #8
 308              		.cfi_def_cfa_offset 16
 309 0004 00AF     		add	r7, sp, #0
 310              		.cfi_def_cfa_register 7
 311 0006 0346     		mov	r3, r0
 312 0008 FB71     		strb	r3, [r7, #7]
 136:mpu6050.c     ****     I2CWriteByte(devAddr, MPU6050_RA_SMPLRT_DIV, rate);
 313              		.loc 1 136 0
 314 000a 054B     		ldr	r3, .L22
 315 000c 1A78     		ldrb	r2, [r3]	@ zero_extendqisi2
 316 000e FB79     		ldrb	r3, [r7, #7]	@ zero_extendqisi2
 317 0010 1046     		mov	r0, r2
 318 0012 1921     		movs	r1, #25
 319 0014 1A46     		mov	r2, r3
 320 0016 FFF7FEFF 		bl	I2CWriteByte
ARM GAS  C:\Users\jwgutter\AppData\Local\Temp\ccGcOqDB.s 			page 9


 137:mpu6050.c     **** }
 321              		.loc 1 137 0
 322 001a 0837     		adds	r7, r7, #8
 323              		.cfi_def_cfa_offset 8
 324 001c BD46     		mov	sp, r7
 325              		.cfi_def_cfa_register 13
 326              		@ sp needed
 327 001e 80BD     		pop	{r7, pc}
 328              	.L23:
 329              		.align	2
 330              	.L22:
 331 0020 00000000 		.word	devAddr
 332              		.cfi_endproc
 333              	.LFE7:
 334              		.size	MPU6050_setRate, .-MPU6050_setRate
 335              		.section	.text.MPU6050_getExternalFrameSync,"ax",%progbits
 336              		.align	2
 337              		.global	MPU6050_getExternalFrameSync
 338              		.thumb
 339              		.thumb_func
 340              		.type	MPU6050_getExternalFrameSync, %function
 341              	MPU6050_getExternalFrameSync:
 342              	.LFB8:
 138:mpu6050.c     **** 
 139:mpu6050.c     **** // CONFIG register
 140:mpu6050.c     **** 
 141:mpu6050.c     **** /** Get external FSYNC configuration.
 142:mpu6050.c     ****  * Configures the external Frame Synchronization (FSYNC) pin sampling. An
 143:mpu6050.c     ****  * external signal connected to the FSYNC pin can be sampled by configuring
 144:mpu6050.c     ****  * EXT_SYNC_SET. Signal changes to the FSYNC pin are latched so that short
 145:mpu6050.c     ****  * strobes may be captured. The latched FSYNC signal will be sampled at the
 146:mpu6050.c     ****  * Sampling Rate, as defined in register 25. After sampling, the latch will
 147:mpu6050.c     ****  * reset to the current FSYNC signal state.
 148:mpu6050.c     ****  *
 149:mpu6050.c     ****  * The sampled value will be reported in place of the least significant bit in
 150:mpu6050.c     ****  * a sensor data register determined by the value of EXT_SYNC_SET according to
 151:mpu6050.c     ****  * the following table.
 152:mpu6050.c     ****  *
 153:mpu6050.c     ****  * <pre>
 154:mpu6050.c     ****  * EXT_SYNC_SET | FSYNC Bit Location
 155:mpu6050.c     ****  * -------------+-------------------
 156:mpu6050.c     ****  * 0            | Input disabled
 157:mpu6050.c     ****  * 1            | TEMP_OUT_L[0]
 158:mpu6050.c     ****  * 2            | GYRO_XOUT_L[0]
 159:mpu6050.c     ****  * 3            | GYRO_YOUT_L[0]
 160:mpu6050.c     ****  * 4            | GYRO_ZOUT_L[0]
 161:mpu6050.c     ****  * 5            | ACCEL_XOUT_L[0]
 162:mpu6050.c     ****  * 6            | ACCEL_YOUT_L[0]
 163:mpu6050.c     ****  * 7            | ACCEL_ZOUT_L[0]
 164:mpu6050.c     ****  * </pre>
 165:mpu6050.c     ****  *
 166:mpu6050.c     ****  * @return FSYNC configuration value
 167:mpu6050.c     ****  */
 168:mpu6050.c     **** uint8_t MPU6050_getExternalFrameSync() {
 343              		.loc 1 168 0
 344              		.cfi_startproc
 345              		@ args = 0, pretend = 0, frame = 0
ARM GAS  C:\Users\jwgutter\AppData\Local\Temp\ccGcOqDB.s 			page 10


 346              		@ frame_needed = 1, uses_anonymous_args = 0
 347 0000 80B5     		push	{r7, lr}
 348              		.cfi_def_cfa_offset 8
 349              		.cfi_offset 7, -8
 350              		.cfi_offset 14, -4
 351 0002 82B0     		sub	sp, sp, #8
 352              		.cfi_def_cfa_offset 16
 353 0004 02AF     		add	r7, sp, #8
 354              		.cfi_def_cfa 7, 8
 169:mpu6050.c     ****     I2CReadBits(devAddr, MPU6050_RA_CONFIG, MPU6050_CFG_EXT_SYNC_SET_BIT, MPU6050_CFG_EXT_SYNC_SET_
 355              		.loc 1 169 0
 356 0006 074B     		ldr	r3, .L26
 357 0008 1A78     		ldrb	r2, [r3]	@ zero_extendqisi2
 358 000a 074B     		ldr	r3, .L26+4
 359 000c 0093     		str	r3, [sp]
 360 000e 1046     		mov	r0, r2
 361 0010 1A21     		movs	r1, #26
 362 0012 0522     		movs	r2, #5
 363 0014 0323     		movs	r3, #3
 364 0016 FFF7FEFF 		bl	I2CReadBits
 170:mpu6050.c     ****     return buffer[0];
 365              		.loc 1 170 0
 366 001a 034B     		ldr	r3, .L26+4
 367 001c 1B78     		ldrb	r3, [r3]	@ zero_extendqisi2
 171:mpu6050.c     **** }
 368              		.loc 1 171 0
 369 001e 1846     		mov	r0, r3
 370 0020 BD46     		mov	sp, r7
 371              		.cfi_def_cfa_register 13
 372              		@ sp needed
 373 0022 80BD     		pop	{r7, pc}
 374              	.L27:
 375              		.align	2
 376              	.L26:
 377 0024 00000000 		.word	devAddr
 378 0028 00000000 		.word	buffer
 379              		.cfi_endproc
 380              	.LFE8:
 381              		.size	MPU6050_getExternalFrameSync, .-MPU6050_getExternalFrameSync
 382              		.section	.text.MPU6050_setExternalFrameSync,"ax",%progbits
 383              		.align	2
 384              		.global	MPU6050_setExternalFrameSync
 385              		.thumb
 386              		.thumb_func
 387              		.type	MPU6050_setExternalFrameSync, %function
 388              	MPU6050_setExternalFrameSync:
 389              	.LFB9:
 172:mpu6050.c     **** /** Set external FSYNC configuration.
 173:mpu6050.c     ****  * @see getExternalFrameSync()
 174:mpu6050.c     ****  * @see MPU6050_RA_CONFIG
 175:mpu6050.c     ****  * @param sync New FSYNC configuration value
 176:mpu6050.c     ****  */
 177:mpu6050.c     **** void MPU6050_setExternalFrameSync(uint8_t sync) {
 390              		.loc 1 177 0
 391              		.cfi_startproc
 392              		@ args = 0, pretend = 0, frame = 8
 393              		@ frame_needed = 1, uses_anonymous_args = 0
ARM GAS  C:\Users\jwgutter\AppData\Local\Temp\ccGcOqDB.s 			page 11


 394 0000 80B5     		push	{r7, lr}
 395              		.cfi_def_cfa_offset 8
 396              		.cfi_offset 7, -8
 397              		.cfi_offset 14, -4
 398 0002 84B0     		sub	sp, sp, #16
 399              		.cfi_def_cfa_offset 24
 400 0004 02AF     		add	r7, sp, #8
 401              		.cfi_def_cfa 7, 16
 402 0006 0346     		mov	r3, r0
 403 0008 FB71     		strb	r3, [r7, #7]
 178:mpu6050.c     ****     I2CWriteBits(devAddr, MPU6050_RA_CONFIG, MPU6050_CFG_EXT_SYNC_SET_BIT, MPU6050_CFG_EXT_SYNC_SET
 404              		.loc 1 178 0
 405 000a 064B     		ldr	r3, .L29
 406 000c 1A78     		ldrb	r2, [r3]	@ zero_extendqisi2
 407 000e FB79     		ldrb	r3, [r7, #7]	@ zero_extendqisi2
 408 0010 0093     		str	r3, [sp]
 409 0012 1046     		mov	r0, r2
 410 0014 1A21     		movs	r1, #26
 411 0016 0522     		movs	r2, #5
 412 0018 0323     		movs	r3, #3
 413 001a FFF7FEFF 		bl	I2CWriteBits
 179:mpu6050.c     **** }
 414              		.loc 1 179 0
 415 001e 0837     		adds	r7, r7, #8
 416              		.cfi_def_cfa_offset 8
 417 0020 BD46     		mov	sp, r7
 418              		.cfi_def_cfa_register 13
 419              		@ sp needed
 420 0022 80BD     		pop	{r7, pc}
 421              	.L30:
 422              		.align	2
 423              	.L29:
 424 0024 00000000 		.word	devAddr
 425              		.cfi_endproc
 426              	.LFE9:
 427              		.size	MPU6050_setExternalFrameSync, .-MPU6050_setExternalFrameSync
 428              		.section	.text.MPU6050_getDLPFMode,"ax",%progbits
 429              		.align	2
 430              		.global	MPU6050_getDLPFMode
 431              		.thumb
 432              		.thumb_func
 433              		.type	MPU6050_getDLPFMode, %function
 434              	MPU6050_getDLPFMode:
 435              	.LFB10:
 180:mpu6050.c     **** /** Get digital low-pass filter configuration.
 181:mpu6050.c     ****  * The DLPF_CFG parameter sets the digital low pass filter configuration. It
 182:mpu6050.c     ****  * also determines the internal sampling rate used by the device as shown in
 183:mpu6050.c     ****  * the table below.
 184:mpu6050.c     ****  *
 185:mpu6050.c     ****  * Note: The accelerometer output rate is 1kHz. This means that for a Sample
 186:mpu6050.c     ****  * Rate greater than 1kHz, the same accelerometer sample may be output to the
 187:mpu6050.c     ****  * FIFO, DMP, and sensor registers more than once.
 188:mpu6050.c     ****  *
 189:mpu6050.c     ****  * <pre>
 190:mpu6050.c     ****  *          |   ACCELEROMETER    |           GYROSCOPE
 191:mpu6050.c     ****  * DLPF_CFG | Bandwidth | Delay  | Bandwidth | Delay  | Sample Rate
 192:mpu6050.c     ****  * ---------+-----------+--------+-----------+--------+-------------
ARM GAS  C:\Users\jwgutter\AppData\Local\Temp\ccGcOqDB.s 			page 12


 193:mpu6050.c     ****  * 0        | 260Hz     | 0ms    | 256Hz     | 0.98ms | 8kHz
 194:mpu6050.c     ****  * 1        | 184Hz     | 2.0ms  | 188Hz     | 1.9ms  | 1kHz
 195:mpu6050.c     ****  * 2        | 94Hz      | 3.0ms  | 98Hz      | 2.8ms  | 1kHz
 196:mpu6050.c     ****  * 3        | 44Hz      | 4.9ms  | 42Hz      | 4.8ms  | 1kHz
 197:mpu6050.c     ****  * 4        | 21Hz      | 8.5ms  | 20Hz      | 8.3ms  | 1kHz
 198:mpu6050.c     ****  * 5        | 10Hz      | 13.8ms | 10Hz      | 13.4ms | 1kHz
 199:mpu6050.c     ****  * 6        | 5Hz       | 19.0ms | 5Hz       | 18.6ms | 1kHz
 200:mpu6050.c     ****  * 7        |   -- Reserved --   |   -- Reserved --   | Reserved
 201:mpu6050.c     ****  * </pre>
 202:mpu6050.c     ****  *
 203:mpu6050.c     ****  * @return DLFP configuration
 204:mpu6050.c     ****  * @see MPU6050_RA_CONFIG
 205:mpu6050.c     ****  * @see MPU6050_CFG_DLPF_CFG_BIT
 206:mpu6050.c     ****  * @see MPU6050_CFG_DLPF_CFG_LENGTH
 207:mpu6050.c     ****  */
 208:mpu6050.c     **** uint8_t MPU6050_getDLPFMode() {
 436              		.loc 1 208 0
 437              		.cfi_startproc
 438              		@ args = 0, pretend = 0, frame = 0
 439              		@ frame_needed = 1, uses_anonymous_args = 0
 440 0000 80B5     		push	{r7, lr}
 441              		.cfi_def_cfa_offset 8
 442              		.cfi_offset 7, -8
 443              		.cfi_offset 14, -4
 444 0002 82B0     		sub	sp, sp, #8
 445              		.cfi_def_cfa_offset 16
 446 0004 02AF     		add	r7, sp, #8
 447              		.cfi_def_cfa 7, 8
 209:mpu6050.c     ****     I2CReadBits(devAddr, MPU6050_RA_CONFIG, MPU6050_CFG_DLPF_CFG_BIT, MPU6050_CFG_DLPF_CFG_LENGTH, 
 448              		.loc 1 209 0
 449 0006 074B     		ldr	r3, .L33
 450 0008 1A78     		ldrb	r2, [r3]	@ zero_extendqisi2
 451 000a 074B     		ldr	r3, .L33+4
 452 000c 0093     		str	r3, [sp]
 453 000e 1046     		mov	r0, r2
 454 0010 1A21     		movs	r1, #26
 455 0012 0222     		movs	r2, #2
 456 0014 0323     		movs	r3, #3
 457 0016 FFF7FEFF 		bl	I2CReadBits
 210:mpu6050.c     ****     return buffer[0];
 458              		.loc 1 210 0
 459 001a 034B     		ldr	r3, .L33+4
 460 001c 1B78     		ldrb	r3, [r3]	@ zero_extendqisi2
 211:mpu6050.c     **** }
 461              		.loc 1 211 0
 462 001e 1846     		mov	r0, r3
 463 0020 BD46     		mov	sp, r7
 464              		.cfi_def_cfa_register 13
 465              		@ sp needed
 466 0022 80BD     		pop	{r7, pc}
 467              	.L34:
 468              		.align	2
 469              	.L33:
 470 0024 00000000 		.word	devAddr
 471 0028 00000000 		.word	buffer
 472              		.cfi_endproc
 473              	.LFE10:
ARM GAS  C:\Users\jwgutter\AppData\Local\Temp\ccGcOqDB.s 			page 13


 474              		.size	MPU6050_getDLPFMode, .-MPU6050_getDLPFMode
 475              		.section	.text.MPU6050_setDLPFMode,"ax",%progbits
 476              		.align	2
 477              		.global	MPU6050_setDLPFMode
 478              		.thumb
 479              		.thumb_func
 480              		.type	MPU6050_setDLPFMode, %function
 481              	MPU6050_setDLPFMode:
 482              	.LFB11:
 212:mpu6050.c     **** /** Set digital low-pass filter configuration.
 213:mpu6050.c     ****  * @param mode New DLFP configuration setting
 214:mpu6050.c     ****  * @see getDLPFBandwidth()
 215:mpu6050.c     ****  * @see MPU6050_DLPF_BW_256
 216:mpu6050.c     ****  * @see MPU6050_RA_CONFIG
 217:mpu6050.c     ****  * @see MPU6050_CFG_DLPF_CFG_BIT
 218:mpu6050.c     ****  * @see MPU6050_CFG_DLPF_CFG_LENGTH
 219:mpu6050.c     ****  */
 220:mpu6050.c     **** void MPU6050_setDLPFMode(uint8_t mode) {
 483              		.loc 1 220 0
 484              		.cfi_startproc
 485              		@ args = 0, pretend = 0, frame = 8
 486              		@ frame_needed = 1, uses_anonymous_args = 0
 487 0000 80B5     		push	{r7, lr}
 488              		.cfi_def_cfa_offset 8
 489              		.cfi_offset 7, -8
 490              		.cfi_offset 14, -4
 491 0002 84B0     		sub	sp, sp, #16
 492              		.cfi_def_cfa_offset 24
 493 0004 02AF     		add	r7, sp, #8
 494              		.cfi_def_cfa 7, 16
 495 0006 0346     		mov	r3, r0
 496 0008 FB71     		strb	r3, [r7, #7]
 221:mpu6050.c     ****     I2CWriteBits(devAddr, MPU6050_RA_CONFIG, MPU6050_CFG_DLPF_CFG_BIT, MPU6050_CFG_DLPF_CFG_LENGTH,
 497              		.loc 1 221 0
 498 000a 064B     		ldr	r3, .L36
 499 000c 1A78     		ldrb	r2, [r3]	@ zero_extendqisi2
 500 000e FB79     		ldrb	r3, [r7, #7]	@ zero_extendqisi2
 501 0010 0093     		str	r3, [sp]
 502 0012 1046     		mov	r0, r2
 503 0014 1A21     		movs	r1, #26
 504 0016 0222     		movs	r2, #2
 505 0018 0323     		movs	r3, #3
 506 001a FFF7FEFF 		bl	I2CWriteBits
 222:mpu6050.c     **** }
 507              		.loc 1 222 0
 508 001e 0837     		adds	r7, r7, #8
 509              		.cfi_def_cfa_offset 8
 510 0020 BD46     		mov	sp, r7
 511              		.cfi_def_cfa_register 13
 512              		@ sp needed
 513 0022 80BD     		pop	{r7, pc}
 514              	.L37:
 515              		.align	2
 516              	.L36:
 517 0024 00000000 		.word	devAddr
 518              		.cfi_endproc
 519              	.LFE11:
ARM GAS  C:\Users\jwgutter\AppData\Local\Temp\ccGcOqDB.s 			page 14


 520              		.size	MPU6050_setDLPFMode, .-MPU6050_setDLPFMode
 521              		.section	.text.MPU6050_getFullScaleGyroRange,"ax",%progbits
 522              		.align	2
 523              		.global	MPU6050_getFullScaleGyroRange
 524              		.thumb
 525              		.thumb_func
 526              		.type	MPU6050_getFullScaleGyroRange, %function
 527              	MPU6050_getFullScaleGyroRange:
 528              	.LFB12:
 223:mpu6050.c     **** 
 224:mpu6050.c     **** // GYRO_CONFIG register
 225:mpu6050.c     **** 
 226:mpu6050.c     **** /** Get full-scale gyroscope range.
 227:mpu6050.c     ****  * The FS_SEL parameter allows setting the full-scale range of the gyro sensors,
 228:mpu6050.c     ****  * as described in the table below.
 229:mpu6050.c     ****  *
 230:mpu6050.c     ****  * <pre>
 231:mpu6050.c     ****  * 0 = +/- 250 degrees/sec
 232:mpu6050.c     ****  * 1 = +/- 500 degrees/sec
 233:mpu6050.c     ****  * 2 = +/- 1000 degrees/sec
 234:mpu6050.c     ****  * 3 = +/- 2000 degrees/sec
 235:mpu6050.c     ****  * </pre>
 236:mpu6050.c     ****  *
 237:mpu6050.c     ****  * @return Current full-scale gyroscope range setting
 238:mpu6050.c     ****  * @see MPU6050_GYRO_FS_250
 239:mpu6050.c     ****  * @see MPU6050_RA_GYRO_CONFIG
 240:mpu6050.c     ****  * @see MPU6050_GCONFIG_FS_SEL_BIT
 241:mpu6050.c     ****  * @see MPU6050_GCONFIG_FS_SEL_LENGTH
 242:mpu6050.c     ****  */
 243:mpu6050.c     **** uint8_t MPU6050_getFullScaleGyroRange() {
 529              		.loc 1 243 0
 530              		.cfi_startproc
 531              		@ args = 0, pretend = 0, frame = 0
 532              		@ frame_needed = 1, uses_anonymous_args = 0
 533 0000 80B5     		push	{r7, lr}
 534              		.cfi_def_cfa_offset 8
 535              		.cfi_offset 7, -8
 536              		.cfi_offset 14, -4
 537 0002 82B0     		sub	sp, sp, #8
 538              		.cfi_def_cfa_offset 16
 539 0004 02AF     		add	r7, sp, #8
 540              		.cfi_def_cfa 7, 8
 244:mpu6050.c     ****     I2CReadBits(devAddr, MPU6050_RA_GYRO_CONFIG, MPU6050_GCONFIG_FS_SEL_BIT, MPU6050_GCONFIG_FS_SEL
 541              		.loc 1 244 0
 542 0006 074B     		ldr	r3, .L40
 543 0008 1A78     		ldrb	r2, [r3]	@ zero_extendqisi2
 544 000a 074B     		ldr	r3, .L40+4
 545 000c 0093     		str	r3, [sp]
 546 000e 1046     		mov	r0, r2
 547 0010 1B21     		movs	r1, #27
 548 0012 0422     		movs	r2, #4
 549 0014 0223     		movs	r3, #2
 550 0016 FFF7FEFF 		bl	I2CReadBits
 245:mpu6050.c     ****     return buffer[0];
 551              		.loc 1 245 0
 552 001a 034B     		ldr	r3, .L40+4
 553 001c 1B78     		ldrb	r3, [r3]	@ zero_extendqisi2
ARM GAS  C:\Users\jwgutter\AppData\Local\Temp\ccGcOqDB.s 			page 15


 246:mpu6050.c     **** }
 554              		.loc 1 246 0
 555 001e 1846     		mov	r0, r3
 556 0020 BD46     		mov	sp, r7
 557              		.cfi_def_cfa_register 13
 558              		@ sp needed
 559 0022 80BD     		pop	{r7, pc}
 560              	.L41:
 561              		.align	2
 562              	.L40:
 563 0024 00000000 		.word	devAddr
 564 0028 00000000 		.word	buffer
 565              		.cfi_endproc
 566              	.LFE12:
 567              		.size	MPU6050_getFullScaleGyroRange, .-MPU6050_getFullScaleGyroRange
 568              		.section	.text.MPU6050_setFullScaleGyroRange,"ax",%progbits
 569              		.align	2
 570              		.global	MPU6050_setFullScaleGyroRange
 571              		.thumb
 572              		.thumb_func
 573              		.type	MPU6050_setFullScaleGyroRange, %function
 574              	MPU6050_setFullScaleGyroRange:
 575              	.LFB13:
 247:mpu6050.c     **** /** Set full-scale gyroscope range.
 248:mpu6050.c     ****  * @param range New full-scale gyroscope range value
 249:mpu6050.c     ****  * @see getFullScaleRange()
 250:mpu6050.c     ****  * @see MPU6050_GYRO_FS_250
 251:mpu6050.c     ****  * @see MPU6050_RA_GYRO_CONFIG
 252:mpu6050.c     ****  * @see MPU6050_GCONFIG_FS_SEL_BIT
 253:mpu6050.c     ****  * @see MPU6050_GCONFIG_FS_SEL_LENGTH
 254:mpu6050.c     ****  */
 255:mpu6050.c     **** void MPU6050_setFullScaleGyroRange(uint8_t range) {
 576              		.loc 1 255 0
 577              		.cfi_startproc
 578              		@ args = 0, pretend = 0, frame = 8
 579              		@ frame_needed = 1, uses_anonymous_args = 0
 580 0000 80B5     		push	{r7, lr}
 581              		.cfi_def_cfa_offset 8
 582              		.cfi_offset 7, -8
 583              		.cfi_offset 14, -4
 584 0002 84B0     		sub	sp, sp, #16
 585              		.cfi_def_cfa_offset 24
 586 0004 02AF     		add	r7, sp, #8
 587              		.cfi_def_cfa 7, 16
 588 0006 0346     		mov	r3, r0
 589 0008 FB71     		strb	r3, [r7, #7]
 256:mpu6050.c     ****     I2CWriteBits(devAddr, MPU6050_RA_GYRO_CONFIG, MPU6050_GCONFIG_FS_SEL_BIT, MPU6050_GCONFIG_FS_SE
 590              		.loc 1 256 0
 591 000a 064B     		ldr	r3, .L43
 592 000c 1A78     		ldrb	r2, [r3]	@ zero_extendqisi2
 593 000e FB79     		ldrb	r3, [r7, #7]	@ zero_extendqisi2
 594 0010 0093     		str	r3, [sp]
 595 0012 1046     		mov	r0, r2
 596 0014 1B21     		movs	r1, #27
 597 0016 0422     		movs	r2, #4
 598 0018 0223     		movs	r3, #2
 599 001a FFF7FEFF 		bl	I2CWriteBits
ARM GAS  C:\Users\jwgutter\AppData\Local\Temp\ccGcOqDB.s 			page 16


 257:mpu6050.c     **** }
 600              		.loc 1 257 0
 601 001e 0837     		adds	r7, r7, #8
 602              		.cfi_def_cfa_offset 8
 603 0020 BD46     		mov	sp, r7
 604              		.cfi_def_cfa_register 13
 605              		@ sp needed
 606 0022 80BD     		pop	{r7, pc}
 607              	.L44:
 608              		.align	2
 609              	.L43:
 610 0024 00000000 		.word	devAddr
 611              		.cfi_endproc
 612              	.LFE13:
 613              		.size	MPU6050_setFullScaleGyroRange, .-MPU6050_setFullScaleGyroRange
 614              		.section	.text.MPU6050_getAccelXSelfTest,"ax",%progbits
 615              		.align	2
 616              		.global	MPU6050_getAccelXSelfTest
 617              		.thumb
 618              		.thumb_func
 619              		.type	MPU6050_getAccelXSelfTest, %function
 620              	MPU6050_getAccelXSelfTest:
 621              	.LFB14:
 258:mpu6050.c     **** 
 259:mpu6050.c     **** // ACCEL_CONFIG register
 260:mpu6050.c     **** 
 261:mpu6050.c     **** /** Get self-test enabled setting for accelerometer X axis.
 262:mpu6050.c     ****  * @return Self-test enabled value
 263:mpu6050.c     ****  * @see MPU6050_RA_ACCEL_CONFIG
 264:mpu6050.c     ****  */
 265:mpu6050.c     **** bool MPU6050_getAccelXSelfTest() {
 622              		.loc 1 265 0
 623              		.cfi_startproc
 624              		@ args = 0, pretend = 0, frame = 0
 625              		@ frame_needed = 1, uses_anonymous_args = 0
 626 0000 80B5     		push	{r7, lr}
 627              		.cfi_def_cfa_offset 8
 628              		.cfi_offset 7, -8
 629              		.cfi_offset 14, -4
 630 0002 00AF     		add	r7, sp, #0
 631              		.cfi_def_cfa_register 7
 266:mpu6050.c     ****     I2CReadBit(devAddr, MPU6050_RA_ACCEL_CONFIG, MPU6050_ACONFIG_XA_ST_BIT, buffer);
 632              		.loc 1 266 0
 633 0004 084B     		ldr	r3, .L47
 634 0006 1B78     		ldrb	r3, [r3]	@ zero_extendqisi2
 635 0008 1846     		mov	r0, r3
 636 000a 1C21     		movs	r1, #28
 637 000c 0722     		movs	r2, #7
 638 000e 074B     		ldr	r3, .L47+4
 639 0010 FFF7FEFF 		bl	I2CReadBit
 267:mpu6050.c     ****     return buffer[0];
 640              		.loc 1 267 0
 641 0014 054B     		ldr	r3, .L47+4
 642 0016 1B78     		ldrb	r3, [r3]	@ zero_extendqisi2
 643 0018 002B     		cmp	r3, #0
 644 001a 14BF     		ite	ne
 645 001c 0123     		movne	r3, #1
ARM GAS  C:\Users\jwgutter\AppData\Local\Temp\ccGcOqDB.s 			page 17


 646 001e 0023     		moveq	r3, #0
 647 0020 DBB2     		uxtb	r3, r3
 268:mpu6050.c     **** }
 648              		.loc 1 268 0
 649 0022 1846     		mov	r0, r3
 650 0024 80BD     		pop	{r7, pc}
 651              	.L48:
 652 0026 00BF     		.align	2
 653              	.L47:
 654 0028 00000000 		.word	devAddr
 655 002c 00000000 		.word	buffer
 656              		.cfi_endproc
 657              	.LFE14:
 658              		.size	MPU6050_getAccelXSelfTest, .-MPU6050_getAccelXSelfTest
 659              		.section	.text.MPU6050_setAccelXSelfTest,"ax",%progbits
 660              		.align	2
 661              		.global	MPU6050_setAccelXSelfTest
 662              		.thumb
 663              		.thumb_func
 664              		.type	MPU6050_setAccelXSelfTest, %function
 665              	MPU6050_setAccelXSelfTest:
 666              	.LFB15:
 269:mpu6050.c     **** /** Set self-test enabled setting for accelerometer X axis.
 270:mpu6050.c     ****  * @param enabled Self-test enabled value
 271:mpu6050.c     ****  * @see MPU6050_RA_ACCEL_CONFIG
 272:mpu6050.c     ****  */
 273:mpu6050.c     **** void MPU6050_setAccelXSelfTest(bool enabled) {
 667              		.loc 1 273 0
 668              		.cfi_startproc
 669              		@ args = 0, pretend = 0, frame = 8
 670              		@ frame_needed = 1, uses_anonymous_args = 0
 671 0000 80B5     		push	{r7, lr}
 672              		.cfi_def_cfa_offset 8
 673              		.cfi_offset 7, -8
 674              		.cfi_offset 14, -4
 675 0002 82B0     		sub	sp, sp, #8
 676              		.cfi_def_cfa_offset 16
 677 0004 00AF     		add	r7, sp, #0
 678              		.cfi_def_cfa_register 7
 679 0006 0346     		mov	r3, r0
 680 0008 FB71     		strb	r3, [r7, #7]
 274:mpu6050.c     ****     I2CWriteBit(devAddr, MPU6050_RA_ACCEL_CONFIG, MPU6050_ACONFIG_XA_ST_BIT, enabled);
 681              		.loc 1 274 0
 682 000a 054B     		ldr	r3, .L50
 683 000c 1A78     		ldrb	r2, [r3]	@ zero_extendqisi2
 684 000e FB79     		ldrb	r3, [r7, #7]	@ zero_extendqisi2
 685 0010 1046     		mov	r0, r2
 686 0012 1C21     		movs	r1, #28
 687 0014 0722     		movs	r2, #7
 688 0016 FFF7FEFF 		bl	I2CWriteBit
 275:mpu6050.c     **** }
 689              		.loc 1 275 0
 690 001a 0837     		adds	r7, r7, #8
 691              		.cfi_def_cfa_offset 8
 692 001c BD46     		mov	sp, r7
 693              		.cfi_def_cfa_register 13
 694              		@ sp needed
ARM GAS  C:\Users\jwgutter\AppData\Local\Temp\ccGcOqDB.s 			page 18


 695 001e 80BD     		pop	{r7, pc}
 696              	.L51:
 697              		.align	2
 698              	.L50:
 699 0020 00000000 		.word	devAddr
 700              		.cfi_endproc
 701              	.LFE15:
 702              		.size	MPU6050_setAccelXSelfTest, .-MPU6050_setAccelXSelfTest
 703              		.section	.text.MPU6050_getAccelYSelfTest,"ax",%progbits
 704              		.align	2
 705              		.global	MPU6050_getAccelYSelfTest
 706              		.thumb
 707              		.thumb_func
 708              		.type	MPU6050_getAccelYSelfTest, %function
 709              	MPU6050_getAccelYSelfTest:
 710              	.LFB16:
 276:mpu6050.c     **** /** Get self-test enabled value for accelerometer Y axis.
 277:mpu6050.c     ****  * @return Self-test enabled value
 278:mpu6050.c     ****  * @see MPU6050_RA_ACCEL_CONFIG
 279:mpu6050.c     ****  */
 280:mpu6050.c     **** bool MPU6050_getAccelYSelfTest() {
 711              		.loc 1 280 0
 712              		.cfi_startproc
 713              		@ args = 0, pretend = 0, frame = 0
 714              		@ frame_needed = 1, uses_anonymous_args = 0
 715 0000 80B5     		push	{r7, lr}
 716              		.cfi_def_cfa_offset 8
 717              		.cfi_offset 7, -8
 718              		.cfi_offset 14, -4
 719 0002 00AF     		add	r7, sp, #0
 720              		.cfi_def_cfa_register 7
 281:mpu6050.c     ****     I2CReadBit(devAddr, MPU6050_RA_ACCEL_CONFIG, MPU6050_ACONFIG_YA_ST_BIT, buffer);
 721              		.loc 1 281 0
 722 0004 084B     		ldr	r3, .L54
 723 0006 1B78     		ldrb	r3, [r3]	@ zero_extendqisi2
 724 0008 1846     		mov	r0, r3
 725 000a 1C21     		movs	r1, #28
 726 000c 0622     		movs	r2, #6
 727 000e 074B     		ldr	r3, .L54+4
 728 0010 FFF7FEFF 		bl	I2CReadBit
 282:mpu6050.c     ****     return buffer[0];
 729              		.loc 1 282 0
 730 0014 054B     		ldr	r3, .L54+4
 731 0016 1B78     		ldrb	r3, [r3]	@ zero_extendqisi2
 732 0018 002B     		cmp	r3, #0
 733 001a 14BF     		ite	ne
 734 001c 0123     		movne	r3, #1
 735 001e 0023     		moveq	r3, #0
 736 0020 DBB2     		uxtb	r3, r3
 283:mpu6050.c     **** }
 737              		.loc 1 283 0
 738 0022 1846     		mov	r0, r3
 739 0024 80BD     		pop	{r7, pc}
 740              	.L55:
 741 0026 00BF     		.align	2
 742              	.L54:
 743 0028 00000000 		.word	devAddr
ARM GAS  C:\Users\jwgutter\AppData\Local\Temp\ccGcOqDB.s 			page 19


 744 002c 00000000 		.word	buffer
 745              		.cfi_endproc
 746              	.LFE16:
 747              		.size	MPU6050_getAccelYSelfTest, .-MPU6050_getAccelYSelfTest
 748              		.section	.text.MPU6050_setAccelYSelfTest,"ax",%progbits
 749              		.align	2
 750              		.global	MPU6050_setAccelYSelfTest
 751              		.thumb
 752              		.thumb_func
 753              		.type	MPU6050_setAccelYSelfTest, %function
 754              	MPU6050_setAccelYSelfTest:
 755              	.LFB17:
 284:mpu6050.c     **** /** Set self-test enabled value for accelerometer Y axis.
 285:mpu6050.c     ****  * @param enabled Self-test enabled value
 286:mpu6050.c     ****  * @see MPU6050_RA_ACCEL_CONFIG
 287:mpu6050.c     ****  */
 288:mpu6050.c     **** void MPU6050_setAccelYSelfTest(bool enabled) {
 756              		.loc 1 288 0
 757              		.cfi_startproc
 758              		@ args = 0, pretend = 0, frame = 8
 759              		@ frame_needed = 1, uses_anonymous_args = 0
 760 0000 80B5     		push	{r7, lr}
 761              		.cfi_def_cfa_offset 8
 762              		.cfi_offset 7, -8
 763              		.cfi_offset 14, -4
 764 0002 82B0     		sub	sp, sp, #8
 765              		.cfi_def_cfa_offset 16
 766 0004 00AF     		add	r7, sp, #0
 767              		.cfi_def_cfa_register 7
 768 0006 0346     		mov	r3, r0
 769 0008 FB71     		strb	r3, [r7, #7]
 289:mpu6050.c     ****     I2CWriteBit(devAddr, MPU6050_RA_ACCEL_CONFIG, MPU6050_ACONFIG_YA_ST_BIT, enabled);
 770              		.loc 1 289 0
 771 000a 054B     		ldr	r3, .L57
 772 000c 1A78     		ldrb	r2, [r3]	@ zero_extendqisi2
 773 000e FB79     		ldrb	r3, [r7, #7]	@ zero_extendqisi2
 774 0010 1046     		mov	r0, r2
 775 0012 1C21     		movs	r1, #28
 776 0014 0622     		movs	r2, #6
 777 0016 FFF7FEFF 		bl	I2CWriteBit
 290:mpu6050.c     **** }
 778              		.loc 1 290 0
 779 001a 0837     		adds	r7, r7, #8
 780              		.cfi_def_cfa_offset 8
 781 001c BD46     		mov	sp, r7
 782              		.cfi_def_cfa_register 13
 783              		@ sp needed
 784 001e 80BD     		pop	{r7, pc}
 785              	.L58:
 786              		.align	2
 787              	.L57:
 788 0020 00000000 		.word	devAddr
 789              		.cfi_endproc
 790              	.LFE17:
 791              		.size	MPU6050_setAccelYSelfTest, .-MPU6050_setAccelYSelfTest
 792              		.section	.text.MPU6050_getAccelZSelfTest,"ax",%progbits
 793              		.align	2
ARM GAS  C:\Users\jwgutter\AppData\Local\Temp\ccGcOqDB.s 			page 20


 794              		.global	MPU6050_getAccelZSelfTest
 795              		.thumb
 796              		.thumb_func
 797              		.type	MPU6050_getAccelZSelfTest, %function
 798              	MPU6050_getAccelZSelfTest:
 799              	.LFB18:
 291:mpu6050.c     **** /** Get self-test enabled value for accelerometer Z axis.
 292:mpu6050.c     ****  * @return Self-test enabled value
 293:mpu6050.c     ****  * @see MPU6050_RA_ACCEL_CONFIG
 294:mpu6050.c     ****  */
 295:mpu6050.c     **** bool MPU6050_getAccelZSelfTest() {
 800              		.loc 1 295 0
 801              		.cfi_startproc
 802              		@ args = 0, pretend = 0, frame = 0
 803              		@ frame_needed = 1, uses_anonymous_args = 0
 804 0000 80B5     		push	{r7, lr}
 805              		.cfi_def_cfa_offset 8
 806              		.cfi_offset 7, -8
 807              		.cfi_offset 14, -4
 808 0002 00AF     		add	r7, sp, #0
 809              		.cfi_def_cfa_register 7
 296:mpu6050.c     ****     I2CReadBit(devAddr, MPU6050_RA_ACCEL_CONFIG, MPU6050_ACONFIG_ZA_ST_BIT, buffer);
 810              		.loc 1 296 0
 811 0004 084B     		ldr	r3, .L61
 812 0006 1B78     		ldrb	r3, [r3]	@ zero_extendqisi2
 813 0008 1846     		mov	r0, r3
 814 000a 1C21     		movs	r1, #28
 815 000c 0522     		movs	r2, #5
 816 000e 074B     		ldr	r3, .L61+4
 817 0010 FFF7FEFF 		bl	I2CReadBit
 297:mpu6050.c     ****     return buffer[0];
 818              		.loc 1 297 0
 819 0014 054B     		ldr	r3, .L61+4
 820 0016 1B78     		ldrb	r3, [r3]	@ zero_extendqisi2
 821 0018 002B     		cmp	r3, #0
 822 001a 14BF     		ite	ne
 823 001c 0123     		movne	r3, #1
 824 001e 0023     		moveq	r3, #0
 825 0020 DBB2     		uxtb	r3, r3
 298:mpu6050.c     **** }
 826              		.loc 1 298 0
 827 0022 1846     		mov	r0, r3
 828 0024 80BD     		pop	{r7, pc}
 829              	.L62:
 830 0026 00BF     		.align	2
 831              	.L61:
 832 0028 00000000 		.word	devAddr
 833 002c 00000000 		.word	buffer
 834              		.cfi_endproc
 835              	.LFE18:
 836              		.size	MPU6050_getAccelZSelfTest, .-MPU6050_getAccelZSelfTest
 837              		.section	.text.MPU6050_setAccelZSelfTest,"ax",%progbits
 838              		.align	2
 839              		.global	MPU6050_setAccelZSelfTest
 840              		.thumb
 841              		.thumb_func
 842              		.type	MPU6050_setAccelZSelfTest, %function
ARM GAS  C:\Users\jwgutter\AppData\Local\Temp\ccGcOqDB.s 			page 21


 843              	MPU6050_setAccelZSelfTest:
 844              	.LFB19:
 299:mpu6050.c     **** /** Set self-test enabled value for accelerometer Z axis.
 300:mpu6050.c     ****  * @param enabled Self-test enabled value
 301:mpu6050.c     ****  * @see MPU6050_RA_ACCEL_CONFIG
 302:mpu6050.c     ****  */
 303:mpu6050.c     **** void MPU6050_setAccelZSelfTest(bool enabled) {
 845              		.loc 1 303 0
 846              		.cfi_startproc
 847              		@ args = 0, pretend = 0, frame = 8
 848              		@ frame_needed = 1, uses_anonymous_args = 0
 849 0000 80B5     		push	{r7, lr}
 850              		.cfi_def_cfa_offset 8
 851              		.cfi_offset 7, -8
 852              		.cfi_offset 14, -4
 853 0002 82B0     		sub	sp, sp, #8
 854              		.cfi_def_cfa_offset 16
 855 0004 00AF     		add	r7, sp, #0
 856              		.cfi_def_cfa_register 7
 857 0006 0346     		mov	r3, r0
 858 0008 FB71     		strb	r3, [r7, #7]
 304:mpu6050.c     ****     I2CWriteBit(devAddr, MPU6050_RA_ACCEL_CONFIG, MPU6050_ACONFIG_ZA_ST_BIT, enabled);
 859              		.loc 1 304 0
 860 000a 054B     		ldr	r3, .L64
 861 000c 1A78     		ldrb	r2, [r3]	@ zero_extendqisi2
 862 000e FB79     		ldrb	r3, [r7, #7]	@ zero_extendqisi2
 863 0010 1046     		mov	r0, r2
 864 0012 1C21     		movs	r1, #28
 865 0014 0522     		movs	r2, #5
 866 0016 FFF7FEFF 		bl	I2CWriteBit
 305:mpu6050.c     **** }
 867              		.loc 1 305 0
 868 001a 0837     		adds	r7, r7, #8
 869              		.cfi_def_cfa_offset 8
 870 001c BD46     		mov	sp, r7
 871              		.cfi_def_cfa_register 13
 872              		@ sp needed
 873 001e 80BD     		pop	{r7, pc}
 874              	.L65:
 875              		.align	2
 876              	.L64:
 877 0020 00000000 		.word	devAddr
 878              		.cfi_endproc
 879              	.LFE19:
 880              		.size	MPU6050_setAccelZSelfTest, .-MPU6050_setAccelZSelfTest
 881              		.section	.text.MPU6050_getFullScaleAccelRange,"ax",%progbits
 882              		.align	2
 883              		.global	MPU6050_getFullScaleAccelRange
 884              		.thumb
 885              		.thumb_func
 886              		.type	MPU6050_getFullScaleAccelRange, %function
 887              	MPU6050_getFullScaleAccelRange:
 888              	.LFB20:
 306:mpu6050.c     **** /** Get full-scale accelerometer range.
 307:mpu6050.c     ****  * The FS_SEL parameter allows setting the full-scale range of the accelerometer
 308:mpu6050.c     ****  * sensors, as described in the table below.
 309:mpu6050.c     ****  *
ARM GAS  C:\Users\jwgutter\AppData\Local\Temp\ccGcOqDB.s 			page 22


 310:mpu6050.c     ****  * <pre>
 311:mpu6050.c     ****  * 0 = +/- 2g
 312:mpu6050.c     ****  * 1 = +/- 4g
 313:mpu6050.c     ****  * 2 = +/- 8g
 314:mpu6050.c     ****  * 3 = +/- 16g
 315:mpu6050.c     ****  * </pre>
 316:mpu6050.c     ****  *
 317:mpu6050.c     ****  * @return Current full-scale accelerometer range setting
 318:mpu6050.c     ****  * @see MPU6050_ACCEL_FS_2
 319:mpu6050.c     ****  * @see MPU6050_RA_ACCEL_CONFIG
 320:mpu6050.c     ****  * @see MPU6050_ACONFIG_AFS_SEL_BIT
 321:mpu6050.c     ****  * @see MPU6050_ACONFIG_AFS_SEL_LENGTH
 322:mpu6050.c     ****  */
 323:mpu6050.c     **** uint8_t MPU6050_getFullScaleAccelRange() {
 889              		.loc 1 323 0
 890              		.cfi_startproc
 891              		@ args = 0, pretend = 0, frame = 0
 892              		@ frame_needed = 1, uses_anonymous_args = 0
 893 0000 80B5     		push	{r7, lr}
 894              		.cfi_def_cfa_offset 8
 895              		.cfi_offset 7, -8
 896              		.cfi_offset 14, -4
 897 0002 82B0     		sub	sp, sp, #8
 898              		.cfi_def_cfa_offset 16
 899 0004 02AF     		add	r7, sp, #8
 900              		.cfi_def_cfa 7, 8
 324:mpu6050.c     ****     I2CReadBits(devAddr, MPU6050_RA_ACCEL_CONFIG, MPU6050_ACONFIG_AFS_SEL_BIT, MPU6050_ACONFIG_AFS_
 901              		.loc 1 324 0
 902 0006 074B     		ldr	r3, .L68
 903 0008 1A78     		ldrb	r2, [r3]	@ zero_extendqisi2
 904 000a 074B     		ldr	r3, .L68+4
 905 000c 0093     		str	r3, [sp]
 906 000e 1046     		mov	r0, r2
 907 0010 1C21     		movs	r1, #28
 908 0012 0422     		movs	r2, #4
 909 0014 0223     		movs	r3, #2
 910 0016 FFF7FEFF 		bl	I2CReadBits
 325:mpu6050.c     ****     return buffer[0];
 911              		.loc 1 325 0
 912 001a 034B     		ldr	r3, .L68+4
 913 001c 1B78     		ldrb	r3, [r3]	@ zero_extendqisi2
 326:mpu6050.c     **** }
 914              		.loc 1 326 0
 915 001e 1846     		mov	r0, r3
 916 0020 BD46     		mov	sp, r7
 917              		.cfi_def_cfa_register 13
 918              		@ sp needed
 919 0022 80BD     		pop	{r7, pc}
 920              	.L69:
 921              		.align	2
 922              	.L68:
 923 0024 00000000 		.word	devAddr
 924 0028 00000000 		.word	buffer
 925              		.cfi_endproc
 926              	.LFE20:
 927              		.size	MPU6050_getFullScaleAccelRange, .-MPU6050_getFullScaleAccelRange
 928              		.section	.text.MPU6050_setFullScaleAccelRange,"ax",%progbits
ARM GAS  C:\Users\jwgutter\AppData\Local\Temp\ccGcOqDB.s 			page 23


 929              		.align	2
 930              		.global	MPU6050_setFullScaleAccelRange
 931              		.thumb
 932              		.thumb_func
 933              		.type	MPU6050_setFullScaleAccelRange, %function
 934              	MPU6050_setFullScaleAccelRange:
 935              	.LFB21:
 327:mpu6050.c     **** /** Set full-scale accelerometer range.
 328:mpu6050.c     ****  * @param range New full-scale accelerometer range setting
 329:mpu6050.c     ****  * @see getFullScaleAccelRange()
 330:mpu6050.c     ****  */
 331:mpu6050.c     **** void MPU6050_setFullScaleAccelRange(uint8_t range) {
 936              		.loc 1 331 0
 937              		.cfi_startproc
 938              		@ args = 0, pretend = 0, frame = 8
 939              		@ frame_needed = 1, uses_anonymous_args = 0
 940 0000 80B5     		push	{r7, lr}
 941              		.cfi_def_cfa_offset 8
 942              		.cfi_offset 7, -8
 943              		.cfi_offset 14, -4
 944 0002 84B0     		sub	sp, sp, #16
 945              		.cfi_def_cfa_offset 24
 946 0004 02AF     		add	r7, sp, #8
 947              		.cfi_def_cfa 7, 16
 948 0006 0346     		mov	r3, r0
 949 0008 FB71     		strb	r3, [r7, #7]
 332:mpu6050.c     ****     I2CWriteBits(devAddr, MPU6050_RA_ACCEL_CONFIG, MPU6050_ACONFIG_AFS_SEL_BIT, MPU6050_ACONFIG_AFS
 950              		.loc 1 332 0
 951 000a 064B     		ldr	r3, .L71
 952 000c 1A78     		ldrb	r2, [r3]	@ zero_extendqisi2
 953 000e FB79     		ldrb	r3, [r7, #7]	@ zero_extendqisi2
 954 0010 0093     		str	r3, [sp]
 955 0012 1046     		mov	r0, r2
 956 0014 1C21     		movs	r1, #28
 957 0016 0422     		movs	r2, #4
 958 0018 0223     		movs	r3, #2
 959 001a FFF7FEFF 		bl	I2CWriteBits
 333:mpu6050.c     **** }
 960              		.loc 1 333 0
 961 001e 0837     		adds	r7, r7, #8
 962              		.cfi_def_cfa_offset 8
 963 0020 BD46     		mov	sp, r7
 964              		.cfi_def_cfa_register 13
 965              		@ sp needed
 966 0022 80BD     		pop	{r7, pc}
 967              	.L72:
 968              		.align	2
 969              	.L71:
 970 0024 00000000 		.word	devAddr
 971              		.cfi_endproc
 972              	.LFE21:
 973              		.size	MPU6050_setFullScaleAccelRange, .-MPU6050_setFullScaleAccelRange
 974              		.section	.text.MPU6050_getDHPFMode,"ax",%progbits
 975              		.align	2
 976              		.global	MPU6050_getDHPFMode
 977              		.thumb
 978              		.thumb_func
ARM GAS  C:\Users\jwgutter\AppData\Local\Temp\ccGcOqDB.s 			page 24


 979              		.type	MPU6050_getDHPFMode, %function
 980              	MPU6050_getDHPFMode:
 981              	.LFB22:
 334:mpu6050.c     **** /** Get the high-pass filter configuration.
 335:mpu6050.c     ****  * The DHPF is a filter module in the path leading to motion detectors (Free
 336:mpu6050.c     ****  * Fall, Motion threshold, and Zero Motion). The high pass filter output is not
 337:mpu6050.c     ****  * available to the data registers (see Figure in Section 8 of the MPU-6000/
 338:mpu6050.c     ****  * MPU-6050 Product Specification document).
 339:mpu6050.c     ****  *
 340:mpu6050.c     ****  * The high pass filter has three modes:
 341:mpu6050.c     ****  *
 342:mpu6050.c     ****  * <pre>
 343:mpu6050.c     ****  *    Reset: The filter output settles to zero within one sample. This
 344:mpu6050.c     ****  *           effectively disables the high pass filter. This mode may be toggled
 345:mpu6050.c     ****  *           to quickly settle the filter.
 346:mpu6050.c     ****  *
 347:mpu6050.c     ****  *    On:    The high pass filter will pass signals above the cut off frequency.
 348:mpu6050.c     ****  *
 349:mpu6050.c     ****  *    Hold:  When triggered, the filter holds the present sample. The filter
 350:mpu6050.c     ****  *           output will be the difference between the input sample and the held
 351:mpu6050.c     ****  *           sample.
 352:mpu6050.c     ****  * </pre>
 353:mpu6050.c     ****  *
 354:mpu6050.c     ****  * <pre>
 355:mpu6050.c     ****  * ACCEL_HPF | Filter Mode | Cut-off Frequency
 356:mpu6050.c     ****  * ----------+-------------+------------------
 357:mpu6050.c     ****  * 0         | Reset       | None
 358:mpu6050.c     ****  * 1         | On          | 5Hz
 359:mpu6050.c     ****  * 2         | On          | 2.5Hz
 360:mpu6050.c     ****  * 3         | On          | 1.25Hz
 361:mpu6050.c     ****  * 4         | On          | 0.63Hz
 362:mpu6050.c     ****  * 7         | Hold        | None
 363:mpu6050.c     ****  * </pre>
 364:mpu6050.c     ****  *
 365:mpu6050.c     ****  * @return Current high-pass filter configuration
 366:mpu6050.c     ****  * @see MPU6050_DHPF_RESET
 367:mpu6050.c     ****  * @see MPU6050_RA_ACCEL_CONFIG
 368:mpu6050.c     ****  */
 369:mpu6050.c     **** uint8_t MPU6050_getDHPFMode() {
 982              		.loc 1 369 0
 983              		.cfi_startproc
 984              		@ args = 0, pretend = 0, frame = 0
 985              		@ frame_needed = 1, uses_anonymous_args = 0
 986 0000 80B5     		push	{r7, lr}
 987              		.cfi_def_cfa_offset 8
 988              		.cfi_offset 7, -8
 989              		.cfi_offset 14, -4
 990 0002 82B0     		sub	sp, sp, #8
 991              		.cfi_def_cfa_offset 16
 992 0004 02AF     		add	r7, sp, #8
 993              		.cfi_def_cfa 7, 8
 370:mpu6050.c     ****     I2CReadBits(devAddr, MPU6050_RA_ACCEL_CONFIG, MPU6050_ACONFIG_ACCEL_HPF_BIT, MPU6050_ACONFIG_AC
 994              		.loc 1 370 0
 995 0006 074B     		ldr	r3, .L75
 996 0008 1A78     		ldrb	r2, [r3]	@ zero_extendqisi2
 997 000a 074B     		ldr	r3, .L75+4
 998 000c 0093     		str	r3, [sp]
ARM GAS  C:\Users\jwgutter\AppData\Local\Temp\ccGcOqDB.s 			page 25


 999 000e 1046     		mov	r0, r2
 1000 0010 1C21     		movs	r1, #28
 1001 0012 0222     		movs	r2, #2
 1002 0014 0323     		movs	r3, #3
 1003 0016 FFF7FEFF 		bl	I2CReadBits
 371:mpu6050.c     ****     return buffer[0];
 1004              		.loc 1 371 0
 1005 001a 034B     		ldr	r3, .L75+4
 1006 001c 1B78     		ldrb	r3, [r3]	@ zero_extendqisi2
 372:mpu6050.c     **** }
 1007              		.loc 1 372 0
 1008 001e 1846     		mov	r0, r3
 1009 0020 BD46     		mov	sp, r7
 1010              		.cfi_def_cfa_register 13
 1011              		@ sp needed
 1012 0022 80BD     		pop	{r7, pc}
 1013              	.L76:
 1014              		.align	2
 1015              	.L75:
 1016 0024 00000000 		.word	devAddr
 1017 0028 00000000 		.word	buffer
 1018              		.cfi_endproc
 1019              	.LFE22:
 1020              		.size	MPU6050_getDHPFMode, .-MPU6050_getDHPFMode
 1021              		.section	.text.MPU6050_setDHPFMode,"ax",%progbits
 1022              		.align	2
 1023              		.global	MPU6050_setDHPFMode
 1024              		.thumb
 1025              		.thumb_func
 1026              		.type	MPU6050_setDHPFMode, %function
 1027              	MPU6050_setDHPFMode:
 1028              	.LFB23:
 373:mpu6050.c     **** /** Set the high-pass filter configuration.
 374:mpu6050.c     ****  * @param bandwidth New high-pass filter configuration
 375:mpu6050.c     ****  * @see setDHPFMode()
 376:mpu6050.c     ****  * @see MPU6050_DHPF_RESET
 377:mpu6050.c     ****  * @see MPU6050_RA_ACCEL_CONFIG
 378:mpu6050.c     ****  */
 379:mpu6050.c     **** void MPU6050_setDHPFMode(uint8_t bandwidth) {
 1029              		.loc 1 379 0
 1030              		.cfi_startproc
 1031              		@ args = 0, pretend = 0, frame = 8
 1032              		@ frame_needed = 1, uses_anonymous_args = 0
 1033 0000 80B5     		push	{r7, lr}
 1034              		.cfi_def_cfa_offset 8
 1035              		.cfi_offset 7, -8
 1036              		.cfi_offset 14, -4
 1037 0002 84B0     		sub	sp, sp, #16
 1038              		.cfi_def_cfa_offset 24
 1039 0004 02AF     		add	r7, sp, #8
 1040              		.cfi_def_cfa 7, 16
 1041 0006 0346     		mov	r3, r0
 1042 0008 FB71     		strb	r3, [r7, #7]
 380:mpu6050.c     ****     I2CWriteBits(devAddr, MPU6050_RA_ACCEL_CONFIG, MPU6050_ACONFIG_ACCEL_HPF_BIT, MPU6050_ACONFIG_A
 1043              		.loc 1 380 0
 1044 000a 064B     		ldr	r3, .L78
 1045 000c 1A78     		ldrb	r2, [r3]	@ zero_extendqisi2
ARM GAS  C:\Users\jwgutter\AppData\Local\Temp\ccGcOqDB.s 			page 26


 1046 000e FB79     		ldrb	r3, [r7, #7]	@ zero_extendqisi2
 1047 0010 0093     		str	r3, [sp]
 1048 0012 1046     		mov	r0, r2
 1049 0014 1C21     		movs	r1, #28
 1050 0016 0222     		movs	r2, #2
 1051 0018 0323     		movs	r3, #3
 1052 001a FFF7FEFF 		bl	I2CWriteBits
 381:mpu6050.c     **** }
 1053              		.loc 1 381 0
 1054 001e 0837     		adds	r7, r7, #8
 1055              		.cfi_def_cfa_offset 8
 1056 0020 BD46     		mov	sp, r7
 1057              		.cfi_def_cfa_register 13
 1058              		@ sp needed
 1059 0022 80BD     		pop	{r7, pc}
 1060              	.L79:
 1061              		.align	2
 1062              	.L78:
 1063 0024 00000000 		.word	devAddr
 1064              		.cfi_endproc
 1065              	.LFE23:
 1066              		.size	MPU6050_setDHPFMode, .-MPU6050_setDHPFMode
 1067              		.section	.text.MPU6050_getFreefallDetectionThreshold,"ax",%progbits
 1068              		.align	2
 1069              		.global	MPU6050_getFreefallDetectionThreshold
 1070              		.thumb
 1071              		.thumb_func
 1072              		.type	MPU6050_getFreefallDetectionThreshold, %function
 1073              	MPU6050_getFreefallDetectionThreshold:
 1074              	.LFB24:
 382:mpu6050.c     **** 
 383:mpu6050.c     **** // FF_THR register
 384:mpu6050.c     **** 
 385:mpu6050.c     **** /** Get free-fall event acceleration threshold.
 386:mpu6050.c     ****  * This register configures the detection threshold for Free Fall event
 387:mpu6050.c     ****  * detection. The unit of FF_THR is 1LSB = 2mg. Free Fall is detected when the
 388:mpu6050.c     ****  * absolute value of the accelerometer measurements for the three axes are each
 389:mpu6050.c     ****  * less than the detection threshold. This condition increments the Free Fall
 390:mpu6050.c     ****  * duration counter (Register 30). The Free Fall interrupt is triggered when the
 391:mpu6050.c     ****  * Free Fall duration counter reaches the time specified in FF_DUR.
 392:mpu6050.c     ****  *
 393:mpu6050.c     ****  * For more details on the Free Fall detection interrupt, see Section 8.2 of the
 394:mpu6050.c     ****  * MPU-6000/MPU-6050 Product Specification document as well as Registers 56 and
 395:mpu6050.c     ****  * 58 of this document.
 396:mpu6050.c     ****  *
 397:mpu6050.c     ****  * @return Current free-fall acceleration threshold value (LSB = 2mg)
 398:mpu6050.c     ****  * @see MPU6050_RA_FF_THR
 399:mpu6050.c     ****  */
 400:mpu6050.c     **** uint8_t MPU6050_getFreefallDetectionThreshold() {
 1075              		.loc 1 400 0
 1076              		.cfi_startproc
 1077              		@ args = 0, pretend = 0, frame = 0
 1078              		@ frame_needed = 1, uses_anonymous_args = 0
 1079 0000 80B5     		push	{r7, lr}
 1080              		.cfi_def_cfa_offset 8
 1081              		.cfi_offset 7, -8
 1082              		.cfi_offset 14, -4
ARM GAS  C:\Users\jwgutter\AppData\Local\Temp\ccGcOqDB.s 			page 27


 1083 0002 00AF     		add	r7, sp, #0
 1084              		.cfi_def_cfa_register 7
 401:mpu6050.c     ****     I2CReadByte(devAddr, MPU6050_RA_FF_THR, buffer);
 1085              		.loc 1 401 0
 1086 0004 054B     		ldr	r3, .L82
 1087 0006 1B78     		ldrb	r3, [r3]	@ zero_extendqisi2
 1088 0008 1846     		mov	r0, r3
 1089 000a 1D21     		movs	r1, #29
 1090 000c 044A     		ldr	r2, .L82+4
 1091 000e FFF7FEFF 		bl	I2CReadByte
 402:mpu6050.c     ****     return buffer[0];
 1092              		.loc 1 402 0
 1093 0012 034B     		ldr	r3, .L82+4
 1094 0014 1B78     		ldrb	r3, [r3]	@ zero_extendqisi2
 403:mpu6050.c     **** }
 1095              		.loc 1 403 0
 1096 0016 1846     		mov	r0, r3
 1097 0018 80BD     		pop	{r7, pc}
 1098              	.L83:
 1099 001a 00BF     		.align	2
 1100              	.L82:
 1101 001c 00000000 		.word	devAddr
 1102 0020 00000000 		.word	buffer
 1103              		.cfi_endproc
 1104              	.LFE24:
 1105              		.size	MPU6050_getFreefallDetectionThreshold, .-MPU6050_getFreefallDetectionThreshold
 1106              		.section	.text.MPU6050_setFreefallDetectionThreshold,"ax",%progbits
 1107              		.align	2
 1108              		.global	MPU6050_setFreefallDetectionThreshold
 1109              		.thumb
 1110              		.thumb_func
 1111              		.type	MPU6050_setFreefallDetectionThreshold, %function
 1112              	MPU6050_setFreefallDetectionThreshold:
 1113              	.LFB25:
 404:mpu6050.c     **** /** Get free-fall event acceleration threshold.
 405:mpu6050.c     ****  * @param threshold New free-fall acceleration threshold value (LSB = 2mg)
 406:mpu6050.c     ****  * @see getFreefallDetectionThreshold()
 407:mpu6050.c     ****  * @see MPU6050_RA_FF_THR
 408:mpu6050.c     ****  */
 409:mpu6050.c     **** void MPU6050_setFreefallDetectionThreshold(uint8_t threshold) {
 1114              		.loc 1 409 0
 1115              		.cfi_startproc
 1116              		@ args = 0, pretend = 0, frame = 8
 1117              		@ frame_needed = 1, uses_anonymous_args = 0
 1118 0000 80B5     		push	{r7, lr}
 1119              		.cfi_def_cfa_offset 8
 1120              		.cfi_offset 7, -8
 1121              		.cfi_offset 14, -4
 1122 0002 82B0     		sub	sp, sp, #8
 1123              		.cfi_def_cfa_offset 16
 1124 0004 00AF     		add	r7, sp, #0
 1125              		.cfi_def_cfa_register 7
 1126 0006 0346     		mov	r3, r0
 1127 0008 FB71     		strb	r3, [r7, #7]
 410:mpu6050.c     ****     I2CWriteByte(devAddr, MPU6050_RA_FF_THR, threshold);
 1128              		.loc 1 410 0
 1129 000a 054B     		ldr	r3, .L85
ARM GAS  C:\Users\jwgutter\AppData\Local\Temp\ccGcOqDB.s 			page 28


 1130 000c 1A78     		ldrb	r2, [r3]	@ zero_extendqisi2
 1131 000e FB79     		ldrb	r3, [r7, #7]	@ zero_extendqisi2
 1132 0010 1046     		mov	r0, r2
 1133 0012 1D21     		movs	r1, #29
 1134 0014 1A46     		mov	r2, r3
 1135 0016 FFF7FEFF 		bl	I2CWriteByte
 411:mpu6050.c     **** }
 1136              		.loc 1 411 0
 1137 001a 0837     		adds	r7, r7, #8
 1138              		.cfi_def_cfa_offset 8
 1139 001c BD46     		mov	sp, r7
 1140              		.cfi_def_cfa_register 13
 1141              		@ sp needed
 1142 001e 80BD     		pop	{r7, pc}
 1143              	.L86:
 1144              		.align	2
 1145              	.L85:
 1146 0020 00000000 		.word	devAddr
 1147              		.cfi_endproc
 1148              	.LFE25:
 1149              		.size	MPU6050_setFreefallDetectionThreshold, .-MPU6050_setFreefallDetectionThreshold
 1150              		.section	.text.MPU6050_getFreefallDetectionDuration,"ax",%progbits
 1151              		.align	2
 1152              		.global	MPU6050_getFreefallDetectionDuration
 1153              		.thumb
 1154              		.thumb_func
 1155              		.type	MPU6050_getFreefallDetectionDuration, %function
 1156              	MPU6050_getFreefallDetectionDuration:
 1157              	.LFB26:
 412:mpu6050.c     **** 
 413:mpu6050.c     **** // FF_DUR register
 414:mpu6050.c     **** 
 415:mpu6050.c     **** /** Get free-fall event duration threshold.
 416:mpu6050.c     ****  * This register configures the duration counter threshold for Free Fall event
 417:mpu6050.c     ****  * detection. The duration counter ticks at 1kHz, therefore FF_DUR has a unit
 418:mpu6050.c     ****  * of 1 LSB = 1 ms.
 419:mpu6050.c     ****  *
 420:mpu6050.c     ****  * The Free Fall duration counter increments while the absolute value of the
 421:mpu6050.c     ****  * accelerometer measurements are each less than the detection threshold
 422:mpu6050.c     ****  * (Register 29). The Free Fall interrupt is triggered when the Free Fall
 423:mpu6050.c     ****  * duration counter reaches the time specified in this register.
 424:mpu6050.c     ****  *
 425:mpu6050.c     ****  * For more details on the Free Fall detection interrupt, see Section 8.2 of
 426:mpu6050.c     ****  * the MPU-6000/MPU-6050 Product Specification document as well as Registers 56
 427:mpu6050.c     ****  * and 58 of this document.
 428:mpu6050.c     ****  *
 429:mpu6050.c     ****  * @return Current free-fall duration threshold value (LSB = 1ms)
 430:mpu6050.c     ****  * @see MPU6050_RA_FF_DUR
 431:mpu6050.c     ****  */
 432:mpu6050.c     **** uint8_t MPU6050_getFreefallDetectionDuration() {
 1158              		.loc 1 432 0
 1159              		.cfi_startproc
 1160              		@ args = 0, pretend = 0, frame = 0
 1161              		@ frame_needed = 1, uses_anonymous_args = 0
 1162 0000 80B5     		push	{r7, lr}
 1163              		.cfi_def_cfa_offset 8
 1164              		.cfi_offset 7, -8
ARM GAS  C:\Users\jwgutter\AppData\Local\Temp\ccGcOqDB.s 			page 29


 1165              		.cfi_offset 14, -4
 1166 0002 00AF     		add	r7, sp, #0
 1167              		.cfi_def_cfa_register 7
 433:mpu6050.c     ****     I2CReadByte(devAddr, MPU6050_RA_FF_DUR, buffer);
 1168              		.loc 1 433 0
 1169 0004 054B     		ldr	r3, .L89
 1170 0006 1B78     		ldrb	r3, [r3]	@ zero_extendqisi2
 1171 0008 1846     		mov	r0, r3
 1172 000a 1E21     		movs	r1, #30
 1173 000c 044A     		ldr	r2, .L89+4
 1174 000e FFF7FEFF 		bl	I2CReadByte
 434:mpu6050.c     ****     return buffer[0];
 1175              		.loc 1 434 0
 1176 0012 034B     		ldr	r3, .L89+4
 1177 0014 1B78     		ldrb	r3, [r3]	@ zero_extendqisi2
 435:mpu6050.c     **** }
 1178              		.loc 1 435 0
 1179 0016 1846     		mov	r0, r3
 1180 0018 80BD     		pop	{r7, pc}
 1181              	.L90:
 1182 001a 00BF     		.align	2
 1183              	.L89:
 1184 001c 00000000 		.word	devAddr
 1185 0020 00000000 		.word	buffer
 1186              		.cfi_endproc
 1187              	.LFE26:
 1188              		.size	MPU6050_getFreefallDetectionDuration, .-MPU6050_getFreefallDetectionDuration
 1189              		.section	.text.MPU6050_setFreefallDetectionDuration,"ax",%progbits
 1190              		.align	2
 1191              		.global	MPU6050_setFreefallDetectionDuration
 1192              		.thumb
 1193              		.thumb_func
 1194              		.type	MPU6050_setFreefallDetectionDuration, %function
 1195              	MPU6050_setFreefallDetectionDuration:
 1196              	.LFB27:
 436:mpu6050.c     **** /** Get free-fall event duration threshold.
 437:mpu6050.c     ****  * @param duration New free-fall duration threshold value (LSB = 1ms)
 438:mpu6050.c     ****  * @see getFreefallDetectionDuration()
 439:mpu6050.c     ****  * @see MPU6050_RA_FF_DUR
 440:mpu6050.c     ****  */
 441:mpu6050.c     **** void MPU6050_setFreefallDetectionDuration(uint8_t duration) {
 1197              		.loc 1 441 0
 1198              		.cfi_startproc
 1199              		@ args = 0, pretend = 0, frame = 8
 1200              		@ frame_needed = 1, uses_anonymous_args = 0
 1201 0000 80B5     		push	{r7, lr}
 1202              		.cfi_def_cfa_offset 8
 1203              		.cfi_offset 7, -8
 1204              		.cfi_offset 14, -4
 1205 0002 82B0     		sub	sp, sp, #8
 1206              		.cfi_def_cfa_offset 16
 1207 0004 00AF     		add	r7, sp, #0
 1208              		.cfi_def_cfa_register 7
 1209 0006 0346     		mov	r3, r0
 1210 0008 FB71     		strb	r3, [r7, #7]
 442:mpu6050.c     ****     I2CWriteByte(devAddr, MPU6050_RA_FF_DUR, duration);
 1211              		.loc 1 442 0
ARM GAS  C:\Users\jwgutter\AppData\Local\Temp\ccGcOqDB.s 			page 30


 1212 000a 054B     		ldr	r3, .L92
 1213 000c 1A78     		ldrb	r2, [r3]	@ zero_extendqisi2
 1214 000e FB79     		ldrb	r3, [r7, #7]	@ zero_extendqisi2
 1215 0010 1046     		mov	r0, r2
 1216 0012 1E21     		movs	r1, #30
 1217 0014 1A46     		mov	r2, r3
 1218 0016 FFF7FEFF 		bl	I2CWriteByte
 443:mpu6050.c     **** }
 1219              		.loc 1 443 0
 1220 001a 0837     		adds	r7, r7, #8
 1221              		.cfi_def_cfa_offset 8
 1222 001c BD46     		mov	sp, r7
 1223              		.cfi_def_cfa_register 13
 1224              		@ sp needed
 1225 001e 80BD     		pop	{r7, pc}
 1226              	.L93:
 1227              		.align	2
 1228              	.L92:
 1229 0020 00000000 		.word	devAddr
 1230              		.cfi_endproc
 1231              	.LFE27:
 1232              		.size	MPU6050_setFreefallDetectionDuration, .-MPU6050_setFreefallDetectionDuration
 1233              		.section	.text.MPU6050_getMotionDetectionThreshold,"ax",%progbits
 1234              		.align	2
 1235              		.global	MPU6050_getMotionDetectionThreshold
 1236              		.thumb
 1237              		.thumb_func
 1238              		.type	MPU6050_getMotionDetectionThreshold, %function
 1239              	MPU6050_getMotionDetectionThreshold:
 1240              	.LFB28:
 444:mpu6050.c     **** 
 445:mpu6050.c     **** // MOT_THR register
 446:mpu6050.c     **** 
 447:mpu6050.c     **** /** Get motion detection event acceleration threshold.
 448:mpu6050.c     ****  * This register configures the detection threshold for Motion interrupt
 449:mpu6050.c     ****  * generation. The unit of MOT_THR is 1LSB = 2mg. Motion is detected when the
 450:mpu6050.c     ****  * absolute value of any of the accelerometer measurements exceeds this Motion
 451:mpu6050.c     ****  * detection threshold. This condition increments the Motion detection duration
 452:mpu6050.c     ****  * counter (Register 32). The Motion detection interrupt is triggered when the
 453:mpu6050.c     ****  * Motion Detection counter reaches the time count specified in MOT_DUR
 454:mpu6050.c     ****  * (Register 32).
 455:mpu6050.c     ****  *
 456:mpu6050.c     ****  * The Motion interrupt will indicate the axis and polarity of detected motion
 457:mpu6050.c     ****  * in MOT_DETECT_STATUS (Register 97).
 458:mpu6050.c     ****  *
 459:mpu6050.c     ****  * For more details on the Motion detection interrupt, see Section 8.3 of the
 460:mpu6050.c     ****  * MPU-6000/MPU-6050 Product Specification document as well as Registers 56 and
 461:mpu6050.c     ****  * 58 of this document.
 462:mpu6050.c     ****  *
 463:mpu6050.c     ****  * @return Current motion detection acceleration threshold value (LSB = 2mg)
 464:mpu6050.c     ****  * @see MPU6050_RA_MOT_THR
 465:mpu6050.c     ****  */
 466:mpu6050.c     **** uint8_t MPU6050_getMotionDetectionThreshold() {
 1241              		.loc 1 466 0
 1242              		.cfi_startproc
 1243              		@ args = 0, pretend = 0, frame = 0
 1244              		@ frame_needed = 1, uses_anonymous_args = 0
ARM GAS  C:\Users\jwgutter\AppData\Local\Temp\ccGcOqDB.s 			page 31


 1245 0000 80B5     		push	{r7, lr}
 1246              		.cfi_def_cfa_offset 8
 1247              		.cfi_offset 7, -8
 1248              		.cfi_offset 14, -4
 1249 0002 00AF     		add	r7, sp, #0
 1250              		.cfi_def_cfa_register 7
 467:mpu6050.c     ****     I2CReadByte(devAddr, MPU6050_RA_MOT_THR, buffer);
 1251              		.loc 1 467 0
 1252 0004 054B     		ldr	r3, .L96
 1253 0006 1B78     		ldrb	r3, [r3]	@ zero_extendqisi2
 1254 0008 1846     		mov	r0, r3
 1255 000a 1F21     		movs	r1, #31
 1256 000c 044A     		ldr	r2, .L96+4
 1257 000e FFF7FEFF 		bl	I2CReadByte
 468:mpu6050.c     ****     return buffer[0];
 1258              		.loc 1 468 0
 1259 0012 034B     		ldr	r3, .L96+4
 1260 0014 1B78     		ldrb	r3, [r3]	@ zero_extendqisi2
 469:mpu6050.c     **** }
 1261              		.loc 1 469 0
 1262 0016 1846     		mov	r0, r3
 1263 0018 80BD     		pop	{r7, pc}
 1264              	.L97:
 1265 001a 00BF     		.align	2
 1266              	.L96:
 1267 001c 00000000 		.word	devAddr
 1268 0020 00000000 		.word	buffer
 1269              		.cfi_endproc
 1270              	.LFE28:
 1271              		.size	MPU6050_getMotionDetectionThreshold, .-MPU6050_getMotionDetectionThreshold
 1272              		.section	.text.MPU6050_setMotionDetectionThreshold,"ax",%progbits
 1273              		.align	2
 1274              		.global	MPU6050_setMotionDetectionThreshold
 1275              		.thumb
 1276              		.thumb_func
 1277              		.type	MPU6050_setMotionDetectionThreshold, %function
 1278              	MPU6050_setMotionDetectionThreshold:
 1279              	.LFB29:
 470:mpu6050.c     **** /** Set free-fall event acceleration threshold.
 471:mpu6050.c     ****  * @param threshold New motion detection acceleration threshold value (LSB = 2mg)
 472:mpu6050.c     ****  * @see getMotionDetectionThreshold()
 473:mpu6050.c     ****  * @see MPU6050_RA_MOT_THR
 474:mpu6050.c     ****  */
 475:mpu6050.c     **** void MPU6050_setMotionDetectionThreshold(uint8_t threshold) {
 1280              		.loc 1 475 0
 1281              		.cfi_startproc
 1282              		@ args = 0, pretend = 0, frame = 8
 1283              		@ frame_needed = 1, uses_anonymous_args = 0
 1284 0000 80B5     		push	{r7, lr}
 1285              		.cfi_def_cfa_offset 8
 1286              		.cfi_offset 7, -8
 1287              		.cfi_offset 14, -4
 1288 0002 82B0     		sub	sp, sp, #8
 1289              		.cfi_def_cfa_offset 16
 1290 0004 00AF     		add	r7, sp, #0
 1291              		.cfi_def_cfa_register 7
 1292 0006 0346     		mov	r3, r0
ARM GAS  C:\Users\jwgutter\AppData\Local\Temp\ccGcOqDB.s 			page 32


 1293 0008 FB71     		strb	r3, [r7, #7]
 476:mpu6050.c     ****     I2CWriteByte(devAddr, MPU6050_RA_MOT_THR, threshold);
 1294              		.loc 1 476 0
 1295 000a 054B     		ldr	r3, .L99
 1296 000c 1A78     		ldrb	r2, [r3]	@ zero_extendqisi2
 1297 000e FB79     		ldrb	r3, [r7, #7]	@ zero_extendqisi2
 1298 0010 1046     		mov	r0, r2
 1299 0012 1F21     		movs	r1, #31
 1300 0014 1A46     		mov	r2, r3
 1301 0016 FFF7FEFF 		bl	I2CWriteByte
 477:mpu6050.c     **** }
 1302              		.loc 1 477 0
 1303 001a 0837     		adds	r7, r7, #8
 1304              		.cfi_def_cfa_offset 8
 1305 001c BD46     		mov	sp, r7
 1306              		.cfi_def_cfa_register 13
 1307              		@ sp needed
 1308 001e 80BD     		pop	{r7, pc}
 1309              	.L100:
 1310              		.align	2
 1311              	.L99:
 1312 0020 00000000 		.word	devAddr
 1313              		.cfi_endproc
 1314              	.LFE29:
 1315              		.size	MPU6050_setMotionDetectionThreshold, .-MPU6050_setMotionDetectionThreshold
 1316              		.section	.text.MPU6050_getMotionDetectionDuration,"ax",%progbits
 1317              		.align	2
 1318              		.global	MPU6050_getMotionDetectionDuration
 1319              		.thumb
 1320              		.thumb_func
 1321              		.type	MPU6050_getMotionDetectionDuration, %function
 1322              	MPU6050_getMotionDetectionDuration:
 1323              	.LFB30:
 478:mpu6050.c     **** 
 479:mpu6050.c     **** // MOT_DUR register
 480:mpu6050.c     **** 
 481:mpu6050.c     **** /** Get motion detection event duration threshold.
 482:mpu6050.c     ****  * This register configures the duration counter threshold for Motion interrupt
 483:mpu6050.c     ****  * generation. The duration counter ticks at 1 kHz, therefore MOT_DUR has a unit
 484:mpu6050.c     ****  * of 1LSB = 1ms. The Motion detection duration counter increments when the
 485:mpu6050.c     ****  * absolute value of any of the accelerometer measurements exceeds the Motion
 486:mpu6050.c     ****  * detection threshold (Register 31). The Motion detection interrupt is
 487:mpu6050.c     ****  * triggered when the Motion detection counter reaches the time count specified
 488:mpu6050.c     ****  * in this register.
 489:mpu6050.c     ****  *
 490:mpu6050.c     ****  * For more details on the Motion detection interrupt, see Section 8.3 of the
 491:mpu6050.c     ****  * MPU-6000/MPU-6050 Product Specification document.
 492:mpu6050.c     ****  *
 493:mpu6050.c     ****  * @return Current motion detection duration threshold value (LSB = 1ms)
 494:mpu6050.c     ****  * @see MPU6050_RA_MOT_DUR
 495:mpu6050.c     ****  */
 496:mpu6050.c     **** uint8_t MPU6050_getMotionDetectionDuration() {
 1324              		.loc 1 496 0
 1325              		.cfi_startproc
 1326              		@ args = 0, pretend = 0, frame = 0
 1327              		@ frame_needed = 1, uses_anonymous_args = 0
 1328 0000 80B5     		push	{r7, lr}
ARM GAS  C:\Users\jwgutter\AppData\Local\Temp\ccGcOqDB.s 			page 33


 1329              		.cfi_def_cfa_offset 8
 1330              		.cfi_offset 7, -8
 1331              		.cfi_offset 14, -4
 1332 0002 00AF     		add	r7, sp, #0
 1333              		.cfi_def_cfa_register 7
 497:mpu6050.c     ****     I2CReadByte(devAddr, MPU6050_RA_MOT_DUR, buffer);
 1334              		.loc 1 497 0
 1335 0004 054B     		ldr	r3, .L103
 1336 0006 1B78     		ldrb	r3, [r3]	@ zero_extendqisi2
 1337 0008 1846     		mov	r0, r3
 1338 000a 2021     		movs	r1, #32
 1339 000c 044A     		ldr	r2, .L103+4
 1340 000e FFF7FEFF 		bl	I2CReadByte
 498:mpu6050.c     ****     return buffer[0];
 1341              		.loc 1 498 0
 1342 0012 034B     		ldr	r3, .L103+4
 1343 0014 1B78     		ldrb	r3, [r3]	@ zero_extendqisi2
 499:mpu6050.c     **** }
 1344              		.loc 1 499 0
 1345 0016 1846     		mov	r0, r3
 1346 0018 80BD     		pop	{r7, pc}
 1347              	.L104:
 1348 001a 00BF     		.align	2
 1349              	.L103:
 1350 001c 00000000 		.word	devAddr
 1351 0020 00000000 		.word	buffer
 1352              		.cfi_endproc
 1353              	.LFE30:
 1354              		.size	MPU6050_getMotionDetectionDuration, .-MPU6050_getMotionDetectionDuration
 1355              		.section	.text.MPU6050_setMotionDetectionDuration,"ax",%progbits
 1356              		.align	2
 1357              		.global	MPU6050_setMotionDetectionDuration
 1358              		.thumb
 1359              		.thumb_func
 1360              		.type	MPU6050_setMotionDetectionDuration, %function
 1361              	MPU6050_setMotionDetectionDuration:
 1362              	.LFB31:
 500:mpu6050.c     **** /** Set motion detection event duration threshold.
 501:mpu6050.c     ****  * @param duration New motion detection duration threshold value (LSB = 1ms)
 502:mpu6050.c     ****  * @see getMotionDetectionDuration()
 503:mpu6050.c     ****  * @see MPU6050_RA_MOT_DUR
 504:mpu6050.c     ****  */
 505:mpu6050.c     **** void MPU6050_setMotionDetectionDuration(uint8_t duration) {
 1363              		.loc 1 505 0
 1364              		.cfi_startproc
 1365              		@ args = 0, pretend = 0, frame = 8
 1366              		@ frame_needed = 1, uses_anonymous_args = 0
 1367 0000 80B5     		push	{r7, lr}
 1368              		.cfi_def_cfa_offset 8
 1369              		.cfi_offset 7, -8
 1370              		.cfi_offset 14, -4
 1371 0002 82B0     		sub	sp, sp, #8
 1372              		.cfi_def_cfa_offset 16
 1373 0004 00AF     		add	r7, sp, #0
 1374              		.cfi_def_cfa_register 7
 1375 0006 0346     		mov	r3, r0
 1376 0008 FB71     		strb	r3, [r7, #7]
ARM GAS  C:\Users\jwgutter\AppData\Local\Temp\ccGcOqDB.s 			page 34


 506:mpu6050.c     ****     I2CWriteByte(devAddr, MPU6050_RA_MOT_DUR, duration);
 1377              		.loc 1 506 0
 1378 000a 054B     		ldr	r3, .L106
 1379 000c 1A78     		ldrb	r2, [r3]	@ zero_extendqisi2
 1380 000e FB79     		ldrb	r3, [r7, #7]	@ zero_extendqisi2
 1381 0010 1046     		mov	r0, r2
 1382 0012 2021     		movs	r1, #32
 1383 0014 1A46     		mov	r2, r3
 1384 0016 FFF7FEFF 		bl	I2CWriteByte
 507:mpu6050.c     **** }
 1385              		.loc 1 507 0
 1386 001a 0837     		adds	r7, r7, #8
 1387              		.cfi_def_cfa_offset 8
 1388 001c BD46     		mov	sp, r7
 1389              		.cfi_def_cfa_register 13
 1390              		@ sp needed
 1391 001e 80BD     		pop	{r7, pc}
 1392              	.L107:
 1393              		.align	2
 1394              	.L106:
 1395 0020 00000000 		.word	devAddr
 1396              		.cfi_endproc
 1397              	.LFE31:
 1398              		.size	MPU6050_setMotionDetectionDuration, .-MPU6050_setMotionDetectionDuration
 1399              		.section	.text.MPU6050_getZeroMotionDetectionThreshold,"ax",%progbits
 1400              		.align	2
 1401              		.global	MPU6050_getZeroMotionDetectionThreshold
 1402              		.thumb
 1403              		.thumb_func
 1404              		.type	MPU6050_getZeroMotionDetectionThreshold, %function
 1405              	MPU6050_getZeroMotionDetectionThreshold:
 1406              	.LFB32:
 508:mpu6050.c     **** 
 509:mpu6050.c     **** // ZRMOT_THR register
 510:mpu6050.c     **** 
 511:mpu6050.c     **** /** Get zero motion detection event acceleration threshold.
 512:mpu6050.c     ****  * This register configures the detection threshold for Zero Motion interrupt
 513:mpu6050.c     ****  * generation. The unit of ZRMOT_THR is 1LSB = 2mg. Zero Motion is detected when
 514:mpu6050.c     ****  * the absolute value of the accelerometer measurements for the 3 axes are each
 515:mpu6050.c     ****  * less than the detection threshold. This condition increments the Zero Motion
 516:mpu6050.c     ****  * duration counter (Register 34). The Zero Motion interrupt is triggered when
 517:mpu6050.c     ****  * the Zero Motion duration counter reaches the time count specified in
 518:mpu6050.c     ****  * ZRMOT_DUR (Register 34).
 519:mpu6050.c     ****  *
 520:mpu6050.c     ****  * Unlike Free Fall or Motion detection, Zero Motion detection triggers an
 521:mpu6050.c     ****  * interrupt both when Zero Motion is first detected and when Zero Motion is no
 522:mpu6050.c     ****  * longer detected.
 523:mpu6050.c     ****  *
 524:mpu6050.c     ****  * When a zero motion event is detected, a Zero Motion Status will be indicated
 525:mpu6050.c     ****  * in the MOT_DETECT_STATUS register (Register 97). When a motion-to-zero-motion
 526:mpu6050.c     ****  * condition is detected, the status bit is set to 1. When a zero-motion-to-
 527:mpu6050.c     ****  * motion condition is detected, the status bit is set to 0.
 528:mpu6050.c     ****  *
 529:mpu6050.c     ****  * For more details on the Zero Motion detection interrupt, see Section 8.4 of
 530:mpu6050.c     ****  * the MPU-6000/MPU-6050 Product Specification document as well as Registers 56
 531:mpu6050.c     ****  * and 58 of this document.
 532:mpu6050.c     ****  *
ARM GAS  C:\Users\jwgutter\AppData\Local\Temp\ccGcOqDB.s 			page 35


 533:mpu6050.c     ****  * @return Current zero motion detection acceleration threshold value (LSB = 2mg)
 534:mpu6050.c     ****  * @see MPU6050_RA_ZRMOT_THR
 535:mpu6050.c     ****  */
 536:mpu6050.c     **** uint8_t MPU6050_getZeroMotionDetectionThreshold() {
 1407              		.loc 1 536 0
 1408              		.cfi_startproc
 1409              		@ args = 0, pretend = 0, frame = 0
 1410              		@ frame_needed = 1, uses_anonymous_args = 0
 1411 0000 80B5     		push	{r7, lr}
 1412              		.cfi_def_cfa_offset 8
 1413              		.cfi_offset 7, -8
 1414              		.cfi_offset 14, -4
 1415 0002 00AF     		add	r7, sp, #0
 1416              		.cfi_def_cfa_register 7
 537:mpu6050.c     ****     I2CReadByte(devAddr, MPU6050_RA_ZRMOT_THR, buffer);
 1417              		.loc 1 537 0
 1418 0004 054B     		ldr	r3, .L110
 1419 0006 1B78     		ldrb	r3, [r3]	@ zero_extendqisi2
 1420 0008 1846     		mov	r0, r3
 1421 000a 2121     		movs	r1, #33
 1422 000c 044A     		ldr	r2, .L110+4
 1423 000e FFF7FEFF 		bl	I2CReadByte
 538:mpu6050.c     ****     return buffer[0];
 1424              		.loc 1 538 0
 1425 0012 034B     		ldr	r3, .L110+4
 1426 0014 1B78     		ldrb	r3, [r3]	@ zero_extendqisi2
 539:mpu6050.c     **** }
 1427              		.loc 1 539 0
 1428 0016 1846     		mov	r0, r3
 1429 0018 80BD     		pop	{r7, pc}
 1430              	.L111:
 1431 001a 00BF     		.align	2
 1432              	.L110:
 1433 001c 00000000 		.word	devAddr
 1434 0020 00000000 		.word	buffer
 1435              		.cfi_endproc
 1436              	.LFE32:
 1437              		.size	MPU6050_getZeroMotionDetectionThreshold, .-MPU6050_getZeroMotionDetectionThreshold
 1438              		.section	.text.MPU6050_setZeroMotionDetectionThreshold,"ax",%progbits
 1439              		.align	2
 1440              		.global	MPU6050_setZeroMotionDetectionThreshold
 1441              		.thumb
 1442              		.thumb_func
 1443              		.type	MPU6050_setZeroMotionDetectionThreshold, %function
 1444              	MPU6050_setZeroMotionDetectionThreshold:
 1445              	.LFB33:
 540:mpu6050.c     **** /** Set zero motion detection event acceleration threshold.
 541:mpu6050.c     ****  * @param threshold New zero motion detection acceleration threshold value (LSB = 2mg)
 542:mpu6050.c     ****  * @see getZeroMotionDetectionThreshold()
 543:mpu6050.c     ****  * @see MPU6050_RA_ZRMOT_THR
 544:mpu6050.c     ****  */
 545:mpu6050.c     **** void MPU6050_setZeroMotionDetectionThreshold(uint8_t threshold) {
 1446              		.loc 1 545 0
 1447              		.cfi_startproc
 1448              		@ args = 0, pretend = 0, frame = 8
 1449              		@ frame_needed = 1, uses_anonymous_args = 0
 1450 0000 80B5     		push	{r7, lr}
ARM GAS  C:\Users\jwgutter\AppData\Local\Temp\ccGcOqDB.s 			page 36


 1451              		.cfi_def_cfa_offset 8
 1452              		.cfi_offset 7, -8
 1453              		.cfi_offset 14, -4
 1454 0002 82B0     		sub	sp, sp, #8
 1455              		.cfi_def_cfa_offset 16
 1456 0004 00AF     		add	r7, sp, #0
 1457              		.cfi_def_cfa_register 7
 1458 0006 0346     		mov	r3, r0
 1459 0008 FB71     		strb	r3, [r7, #7]
 546:mpu6050.c     ****     I2CWriteByte(devAddr, MPU6050_RA_ZRMOT_THR, threshold);
 1460              		.loc 1 546 0
 1461 000a 054B     		ldr	r3, .L113
 1462 000c 1A78     		ldrb	r2, [r3]	@ zero_extendqisi2
 1463 000e FB79     		ldrb	r3, [r7, #7]	@ zero_extendqisi2
 1464 0010 1046     		mov	r0, r2
 1465 0012 2121     		movs	r1, #33
 1466 0014 1A46     		mov	r2, r3
 1467 0016 FFF7FEFF 		bl	I2CWriteByte
 547:mpu6050.c     **** }
 1468              		.loc 1 547 0
 1469 001a 0837     		adds	r7, r7, #8
 1470              		.cfi_def_cfa_offset 8
 1471 001c BD46     		mov	sp, r7
 1472              		.cfi_def_cfa_register 13
 1473              		@ sp needed
 1474 001e 80BD     		pop	{r7, pc}
 1475              	.L114:
 1476              		.align	2
 1477              	.L113:
 1478 0020 00000000 		.word	devAddr
 1479              		.cfi_endproc
 1480              	.LFE33:
 1481              		.size	MPU6050_setZeroMotionDetectionThreshold, .-MPU6050_setZeroMotionDetectionThreshold
 1482              		.section	.text.MPU6050_getZeroMotionDetectionDuration,"ax",%progbits
 1483              		.align	2
 1484              		.global	MPU6050_getZeroMotionDetectionDuration
 1485              		.thumb
 1486              		.thumb_func
 1487              		.type	MPU6050_getZeroMotionDetectionDuration, %function
 1488              	MPU6050_getZeroMotionDetectionDuration:
 1489              	.LFB34:
 548:mpu6050.c     **** 
 549:mpu6050.c     **** // ZRMOT_DUR register
 550:mpu6050.c     **** 
 551:mpu6050.c     **** /** Get zero motion detection event duration threshold.
 552:mpu6050.c     ****  * This register configures the duration counter threshold for Zero Motion
 553:mpu6050.c     ****  * interrupt generation. The duration counter ticks at 16 Hz, therefore
 554:mpu6050.c     ****  * ZRMOT_DUR has a unit of 1 LSB = 64 ms. The Zero Motion duration counter
 555:mpu6050.c     ****  * increments while the absolute value of the accelerometer measurements are
 556:mpu6050.c     ****  * each less than the detection threshold (Register 33). The Zero Motion
 557:mpu6050.c     ****  * interrupt is triggered when the Zero Motion duration counter reaches the time
 558:mpu6050.c     ****  * count specified in this register.
 559:mpu6050.c     ****  *
 560:mpu6050.c     ****  * For more details on the Zero Motion detection interrupt, see Section 8.4 of
 561:mpu6050.c     ****  * the MPU-6000/MPU-6050 Product Specification document, as well as Registers 56
 562:mpu6050.c     ****  * and 58 of this document.
 563:mpu6050.c     ****  *
ARM GAS  C:\Users\jwgutter\AppData\Local\Temp\ccGcOqDB.s 			page 37


 564:mpu6050.c     ****  * @return Current zero motion detection duration threshold value (LSB = 64ms)
 565:mpu6050.c     ****  * @see MPU6050_RA_ZRMOT_DUR
 566:mpu6050.c     ****  */
 567:mpu6050.c     **** uint8_t MPU6050_getZeroMotionDetectionDuration() {
 1490              		.loc 1 567 0
 1491              		.cfi_startproc
 1492              		@ args = 0, pretend = 0, frame = 0
 1493              		@ frame_needed = 1, uses_anonymous_args = 0
 1494 0000 80B5     		push	{r7, lr}
 1495              		.cfi_def_cfa_offset 8
 1496              		.cfi_offset 7, -8
 1497              		.cfi_offset 14, -4
 1498 0002 00AF     		add	r7, sp, #0
 1499              		.cfi_def_cfa_register 7
 568:mpu6050.c     ****     I2CReadByte(devAddr, MPU6050_RA_ZRMOT_DUR, buffer);
 1500              		.loc 1 568 0
 1501 0004 054B     		ldr	r3, .L117
 1502 0006 1B78     		ldrb	r3, [r3]	@ zero_extendqisi2
 1503 0008 1846     		mov	r0, r3
 1504 000a 2221     		movs	r1, #34
 1505 000c 044A     		ldr	r2, .L117+4
 1506 000e FFF7FEFF 		bl	I2CReadByte
 569:mpu6050.c     ****     return buffer[0];
 1507              		.loc 1 569 0
 1508 0012 034B     		ldr	r3, .L117+4
 1509 0014 1B78     		ldrb	r3, [r3]	@ zero_extendqisi2
 570:mpu6050.c     **** }
 1510              		.loc 1 570 0
 1511 0016 1846     		mov	r0, r3
 1512 0018 80BD     		pop	{r7, pc}
 1513              	.L118:
 1514 001a 00BF     		.align	2
 1515              	.L117:
 1516 001c 00000000 		.word	devAddr
 1517 0020 00000000 		.word	buffer
 1518              		.cfi_endproc
 1519              	.LFE34:
 1520              		.size	MPU6050_getZeroMotionDetectionDuration, .-MPU6050_getZeroMotionDetectionDuration
 1521              		.section	.text.MPU6050_setZeroMotionDetectionDuration,"ax",%progbits
 1522              		.align	2
 1523              		.global	MPU6050_setZeroMotionDetectionDuration
 1524              		.thumb
 1525              		.thumb_func
 1526              		.type	MPU6050_setZeroMotionDetectionDuration, %function
 1527              	MPU6050_setZeroMotionDetectionDuration:
 1528              	.LFB35:
 571:mpu6050.c     **** /** Set zero motion detection event duration threshold.
 572:mpu6050.c     ****  * @param duration New zero motion detection duration threshold value (LSB = 1ms)
 573:mpu6050.c     ****  * @see getZeroMotionDetectionDuration()
 574:mpu6050.c     ****  * @see MPU6050_RA_ZRMOT_DUR
 575:mpu6050.c     ****  */
 576:mpu6050.c     **** void MPU6050_setZeroMotionDetectionDuration(uint8_t duration) {
 1529              		.loc 1 576 0
 1530              		.cfi_startproc
 1531              		@ args = 0, pretend = 0, frame = 8
 1532              		@ frame_needed = 1, uses_anonymous_args = 0
 1533 0000 80B5     		push	{r7, lr}
ARM GAS  C:\Users\jwgutter\AppData\Local\Temp\ccGcOqDB.s 			page 38


 1534              		.cfi_def_cfa_offset 8
 1535              		.cfi_offset 7, -8
 1536              		.cfi_offset 14, -4
 1537 0002 82B0     		sub	sp, sp, #8
 1538              		.cfi_def_cfa_offset 16
 1539 0004 00AF     		add	r7, sp, #0
 1540              		.cfi_def_cfa_register 7
 1541 0006 0346     		mov	r3, r0
 1542 0008 FB71     		strb	r3, [r7, #7]
 577:mpu6050.c     ****     I2CWriteByte(devAddr, MPU6050_RA_ZRMOT_DUR, duration);
 1543              		.loc 1 577 0
 1544 000a 054B     		ldr	r3, .L120
 1545 000c 1A78     		ldrb	r2, [r3]	@ zero_extendqisi2
 1546 000e FB79     		ldrb	r3, [r7, #7]	@ zero_extendqisi2
 1547 0010 1046     		mov	r0, r2
 1548 0012 2221     		movs	r1, #34
 1549 0014 1A46     		mov	r2, r3
 1550 0016 FFF7FEFF 		bl	I2CWriteByte
 578:mpu6050.c     **** }
 1551              		.loc 1 578 0
 1552 001a 0837     		adds	r7, r7, #8
 1553              		.cfi_def_cfa_offset 8
 1554 001c BD46     		mov	sp, r7
 1555              		.cfi_def_cfa_register 13
 1556              		@ sp needed
 1557 001e 80BD     		pop	{r7, pc}
 1558              	.L121:
 1559              		.align	2
 1560              	.L120:
 1561 0020 00000000 		.word	devAddr
 1562              		.cfi_endproc
 1563              	.LFE35:
 1564              		.size	MPU6050_setZeroMotionDetectionDuration, .-MPU6050_setZeroMotionDetectionDuration
 1565              		.section	.text.MPU6050_getTempFIFOEnabled,"ax",%progbits
 1566              		.align	2
 1567              		.global	MPU6050_getTempFIFOEnabled
 1568              		.thumb
 1569              		.thumb_func
 1570              		.type	MPU6050_getTempFIFOEnabled, %function
 1571              	MPU6050_getTempFIFOEnabled:
 1572              	.LFB36:
 579:mpu6050.c     **** 
 580:mpu6050.c     **** // FIFO_EN register
 581:mpu6050.c     **** 
 582:mpu6050.c     **** /** Get temperature FIFO enabled value.
 583:mpu6050.c     ****  * When set to 1, this bit enables TEMP_OUT_H and TEMP_OUT_L (Registers 65 and
 584:mpu6050.c     ****  * 66) to be written into the FIFO buffer.
 585:mpu6050.c     ****  * @return Current temperature FIFO enabled value
 586:mpu6050.c     ****  * @see MPU6050_RA_FIFO_EN
 587:mpu6050.c     ****  */
 588:mpu6050.c     **** bool MPU6050_getTempFIFOEnabled() {
 1573              		.loc 1 588 0
 1574              		.cfi_startproc
 1575              		@ args = 0, pretend = 0, frame = 0
 1576              		@ frame_needed = 1, uses_anonymous_args = 0
 1577 0000 80B5     		push	{r7, lr}
 1578              		.cfi_def_cfa_offset 8
ARM GAS  C:\Users\jwgutter\AppData\Local\Temp\ccGcOqDB.s 			page 39


 1579              		.cfi_offset 7, -8
 1580              		.cfi_offset 14, -4
 1581 0002 00AF     		add	r7, sp, #0
 1582              		.cfi_def_cfa_register 7
 589:mpu6050.c     ****     I2CReadBit(devAddr, MPU6050_RA_FIFO_EN, MPU6050_TEMP_FIFO_EN_BIT, buffer);
 1583              		.loc 1 589 0
 1584 0004 084B     		ldr	r3, .L124
 1585 0006 1B78     		ldrb	r3, [r3]	@ zero_extendqisi2
 1586 0008 1846     		mov	r0, r3
 1587 000a 2321     		movs	r1, #35
 1588 000c 0722     		movs	r2, #7
 1589 000e 074B     		ldr	r3, .L124+4
 1590 0010 FFF7FEFF 		bl	I2CReadBit
 590:mpu6050.c     ****     return buffer[0];
 1591              		.loc 1 590 0
 1592 0014 054B     		ldr	r3, .L124+4
 1593 0016 1B78     		ldrb	r3, [r3]	@ zero_extendqisi2
 1594 0018 002B     		cmp	r3, #0
 1595 001a 14BF     		ite	ne
 1596 001c 0123     		movne	r3, #1
 1597 001e 0023     		moveq	r3, #0
 1598 0020 DBB2     		uxtb	r3, r3
 591:mpu6050.c     **** }
 1599              		.loc 1 591 0
 1600 0022 1846     		mov	r0, r3
 1601 0024 80BD     		pop	{r7, pc}
 1602              	.L125:
 1603 0026 00BF     		.align	2
 1604              	.L124:
 1605 0028 00000000 		.word	devAddr
 1606 002c 00000000 		.word	buffer
 1607              		.cfi_endproc
 1608              	.LFE36:
 1609              		.size	MPU6050_getTempFIFOEnabled, .-MPU6050_getTempFIFOEnabled
 1610              		.section	.text.MPU6050_setTempFIFOEnabled,"ax",%progbits
 1611              		.align	2
 1612              		.global	MPU6050_setTempFIFOEnabled
 1613              		.thumb
 1614              		.thumb_func
 1615              		.type	MPU6050_setTempFIFOEnabled, %function
 1616              	MPU6050_setTempFIFOEnabled:
 1617              	.LFB37:
 592:mpu6050.c     **** /** Set temperature FIFO enabled value.
 593:mpu6050.c     ****  * @param enabled New temperature FIFO enabled value
 594:mpu6050.c     ****  * @see getTempFIFOEnabled()
 595:mpu6050.c     ****  * @see MPU6050_RA_FIFO_EN
 596:mpu6050.c     ****  */
 597:mpu6050.c     **** void MPU6050_setTempFIFOEnabled(bool enabled) {
 1618              		.loc 1 597 0
 1619              		.cfi_startproc
 1620              		@ args = 0, pretend = 0, frame = 8
 1621              		@ frame_needed = 1, uses_anonymous_args = 0
 1622 0000 80B5     		push	{r7, lr}
 1623              		.cfi_def_cfa_offset 8
 1624              		.cfi_offset 7, -8
 1625              		.cfi_offset 14, -4
 1626 0002 82B0     		sub	sp, sp, #8
ARM GAS  C:\Users\jwgutter\AppData\Local\Temp\ccGcOqDB.s 			page 40


 1627              		.cfi_def_cfa_offset 16
 1628 0004 00AF     		add	r7, sp, #0
 1629              		.cfi_def_cfa_register 7
 1630 0006 0346     		mov	r3, r0
 1631 0008 FB71     		strb	r3, [r7, #7]
 598:mpu6050.c     ****     I2CWriteBit(devAddr, MPU6050_RA_FIFO_EN, MPU6050_TEMP_FIFO_EN_BIT, enabled);
 1632              		.loc 1 598 0
 1633 000a 054B     		ldr	r3, .L127
 1634 000c 1A78     		ldrb	r2, [r3]	@ zero_extendqisi2
 1635 000e FB79     		ldrb	r3, [r7, #7]	@ zero_extendqisi2
 1636 0010 1046     		mov	r0, r2
 1637 0012 2321     		movs	r1, #35
 1638 0014 0722     		movs	r2, #7
 1639 0016 FFF7FEFF 		bl	I2CWriteBit
 599:mpu6050.c     **** }
 1640              		.loc 1 599 0
 1641 001a 0837     		adds	r7, r7, #8
 1642              		.cfi_def_cfa_offset 8
 1643 001c BD46     		mov	sp, r7
 1644              		.cfi_def_cfa_register 13
 1645              		@ sp needed
 1646 001e 80BD     		pop	{r7, pc}
 1647              	.L128:
 1648              		.align	2
 1649              	.L127:
 1650 0020 00000000 		.word	devAddr
 1651              		.cfi_endproc
 1652              	.LFE37:
 1653              		.size	MPU6050_setTempFIFOEnabled, .-MPU6050_setTempFIFOEnabled
 1654              		.section	.text.MPU6050_getXGyroFIFOEnabled,"ax",%progbits
 1655              		.align	2
 1656              		.global	MPU6050_getXGyroFIFOEnabled
 1657              		.thumb
 1658              		.thumb_func
 1659              		.type	MPU6050_getXGyroFIFOEnabled, %function
 1660              	MPU6050_getXGyroFIFOEnabled:
 1661              	.LFB38:
 600:mpu6050.c     **** /** Get gyroscope X-axis FIFO enabled value.
 601:mpu6050.c     ****  * When set to 1, this bit enables GYRO_XOUT_H and GYRO_XOUT_L (Registers 67 and
 602:mpu6050.c     ****  * 68) to be written into the FIFO buffer.
 603:mpu6050.c     ****  * @return Current gyroscope X-axis FIFO enabled value
 604:mpu6050.c     ****  * @see MPU6050_RA_FIFO_EN
 605:mpu6050.c     ****  */
 606:mpu6050.c     **** bool MPU6050_getXGyroFIFOEnabled() {
 1662              		.loc 1 606 0
 1663              		.cfi_startproc
 1664              		@ args = 0, pretend = 0, frame = 0
 1665              		@ frame_needed = 1, uses_anonymous_args = 0
 1666 0000 80B5     		push	{r7, lr}
 1667              		.cfi_def_cfa_offset 8
 1668              		.cfi_offset 7, -8
 1669              		.cfi_offset 14, -4
 1670 0002 00AF     		add	r7, sp, #0
 1671              		.cfi_def_cfa_register 7
 607:mpu6050.c     ****     I2CReadBit(devAddr, MPU6050_RA_FIFO_EN, MPU6050_XG_FIFO_EN_BIT, buffer);
 1672              		.loc 1 607 0
 1673 0004 084B     		ldr	r3, .L131
ARM GAS  C:\Users\jwgutter\AppData\Local\Temp\ccGcOqDB.s 			page 41


 1674 0006 1B78     		ldrb	r3, [r3]	@ zero_extendqisi2
 1675 0008 1846     		mov	r0, r3
 1676 000a 2321     		movs	r1, #35
 1677 000c 0622     		movs	r2, #6
 1678 000e 074B     		ldr	r3, .L131+4
 1679 0010 FFF7FEFF 		bl	I2CReadBit
 608:mpu6050.c     ****     return buffer[0];
 1680              		.loc 1 608 0
 1681 0014 054B     		ldr	r3, .L131+4
 1682 0016 1B78     		ldrb	r3, [r3]	@ zero_extendqisi2
 1683 0018 002B     		cmp	r3, #0
 1684 001a 14BF     		ite	ne
 1685 001c 0123     		movne	r3, #1
 1686 001e 0023     		moveq	r3, #0
 1687 0020 DBB2     		uxtb	r3, r3
 609:mpu6050.c     **** }
 1688              		.loc 1 609 0
 1689 0022 1846     		mov	r0, r3
 1690 0024 80BD     		pop	{r7, pc}
 1691              	.L132:
 1692 0026 00BF     		.align	2
 1693              	.L131:
 1694 0028 00000000 		.word	devAddr
 1695 002c 00000000 		.word	buffer
 1696              		.cfi_endproc
 1697              	.LFE38:
 1698              		.size	MPU6050_getXGyroFIFOEnabled, .-MPU6050_getXGyroFIFOEnabled
 1699              		.section	.text.MPU6050_setXGyroFIFOEnabled,"ax",%progbits
 1700              		.align	2
 1701              		.global	MPU6050_setXGyroFIFOEnabled
 1702              		.thumb
 1703              		.thumb_func
 1704              		.type	MPU6050_setXGyroFIFOEnabled, %function
 1705              	MPU6050_setXGyroFIFOEnabled:
 1706              	.LFB39:
 610:mpu6050.c     **** /** Set gyroscope X-axis FIFO enabled value.
 611:mpu6050.c     ****  * @param enabled New gyroscope X-axis FIFO enabled value
 612:mpu6050.c     ****  * @see getXGyroFIFOEnabled()
 613:mpu6050.c     ****  * @see MPU6050_RA_FIFO_EN
 614:mpu6050.c     ****  */
 615:mpu6050.c     **** void MPU6050_setXGyroFIFOEnabled(bool enabled) {
 1707              		.loc 1 615 0
 1708              		.cfi_startproc
 1709              		@ args = 0, pretend = 0, frame = 8
 1710              		@ frame_needed = 1, uses_anonymous_args = 0
 1711 0000 80B5     		push	{r7, lr}
 1712              		.cfi_def_cfa_offset 8
 1713              		.cfi_offset 7, -8
 1714              		.cfi_offset 14, -4
 1715 0002 82B0     		sub	sp, sp, #8
 1716              		.cfi_def_cfa_offset 16
 1717 0004 00AF     		add	r7, sp, #0
 1718              		.cfi_def_cfa_register 7
 1719 0006 0346     		mov	r3, r0
 1720 0008 FB71     		strb	r3, [r7, #7]
 616:mpu6050.c     ****     I2CWriteBit(devAddr, MPU6050_RA_FIFO_EN, MPU6050_XG_FIFO_EN_BIT, enabled);
 1721              		.loc 1 616 0
ARM GAS  C:\Users\jwgutter\AppData\Local\Temp\ccGcOqDB.s 			page 42


 1722 000a 054B     		ldr	r3, .L134
 1723 000c 1A78     		ldrb	r2, [r3]	@ zero_extendqisi2
 1724 000e FB79     		ldrb	r3, [r7, #7]	@ zero_extendqisi2
 1725 0010 1046     		mov	r0, r2
 1726 0012 2321     		movs	r1, #35
 1727 0014 0622     		movs	r2, #6
 1728 0016 FFF7FEFF 		bl	I2CWriteBit
 617:mpu6050.c     **** }
 1729              		.loc 1 617 0
 1730 001a 0837     		adds	r7, r7, #8
 1731              		.cfi_def_cfa_offset 8
 1732 001c BD46     		mov	sp, r7
 1733              		.cfi_def_cfa_register 13
 1734              		@ sp needed
 1735 001e 80BD     		pop	{r7, pc}
 1736              	.L135:
 1737              		.align	2
 1738              	.L134:
 1739 0020 00000000 		.word	devAddr
 1740              		.cfi_endproc
 1741              	.LFE39:
 1742              		.size	MPU6050_setXGyroFIFOEnabled, .-MPU6050_setXGyroFIFOEnabled
 1743              		.section	.text.MPU6050_getYGyroFIFOEnabled,"ax",%progbits
 1744              		.align	2
 1745              		.global	MPU6050_getYGyroFIFOEnabled
 1746              		.thumb
 1747              		.thumb_func
 1748              		.type	MPU6050_getYGyroFIFOEnabled, %function
 1749              	MPU6050_getYGyroFIFOEnabled:
 1750              	.LFB40:
 618:mpu6050.c     **** /** Get gyroscope Y-axis FIFO enabled value.
 619:mpu6050.c     ****  * When set to 1, this bit enables GYRO_YOUT_H and GYRO_YOUT_L (Registers 69 and
 620:mpu6050.c     ****  * 70) to be written into the FIFO buffer.
 621:mpu6050.c     ****  * @return Current gyroscope Y-axis FIFO enabled value
 622:mpu6050.c     ****  * @see MPU6050_RA_FIFO_EN
 623:mpu6050.c     ****  */
 624:mpu6050.c     **** bool MPU6050_getYGyroFIFOEnabled() {
 1751              		.loc 1 624 0
 1752              		.cfi_startproc
 1753              		@ args = 0, pretend = 0, frame = 0
 1754              		@ frame_needed = 1, uses_anonymous_args = 0
 1755 0000 80B5     		push	{r7, lr}
 1756              		.cfi_def_cfa_offset 8
 1757              		.cfi_offset 7, -8
 1758              		.cfi_offset 14, -4
 1759 0002 00AF     		add	r7, sp, #0
 1760              		.cfi_def_cfa_register 7
 625:mpu6050.c     ****     I2CReadBit(devAddr, MPU6050_RA_FIFO_EN, MPU6050_YG_FIFO_EN_BIT, buffer);
 1761              		.loc 1 625 0
 1762 0004 084B     		ldr	r3, .L138
 1763 0006 1B78     		ldrb	r3, [r3]	@ zero_extendqisi2
 1764 0008 1846     		mov	r0, r3
 1765 000a 2321     		movs	r1, #35
 1766 000c 0522     		movs	r2, #5
 1767 000e 074B     		ldr	r3, .L138+4
 1768 0010 FFF7FEFF 		bl	I2CReadBit
 626:mpu6050.c     ****     return buffer[0];
ARM GAS  C:\Users\jwgutter\AppData\Local\Temp\ccGcOqDB.s 			page 43


 1769              		.loc 1 626 0
 1770 0014 054B     		ldr	r3, .L138+4
 1771 0016 1B78     		ldrb	r3, [r3]	@ zero_extendqisi2
 1772 0018 002B     		cmp	r3, #0
 1773 001a 14BF     		ite	ne
 1774 001c 0123     		movne	r3, #1
 1775 001e 0023     		moveq	r3, #0
 1776 0020 DBB2     		uxtb	r3, r3
 627:mpu6050.c     **** }
 1777              		.loc 1 627 0
 1778 0022 1846     		mov	r0, r3
 1779 0024 80BD     		pop	{r7, pc}
 1780              	.L139:
 1781 0026 00BF     		.align	2
 1782              	.L138:
 1783 0028 00000000 		.word	devAddr
 1784 002c 00000000 		.word	buffer
 1785              		.cfi_endproc
 1786              	.LFE40:
 1787              		.size	MPU6050_getYGyroFIFOEnabled, .-MPU6050_getYGyroFIFOEnabled
 1788              		.section	.text.MPU6050_setYGyroFIFOEnabled,"ax",%progbits
 1789              		.align	2
 1790              		.global	MPU6050_setYGyroFIFOEnabled
 1791              		.thumb
 1792              		.thumb_func
 1793              		.type	MPU6050_setYGyroFIFOEnabled, %function
 1794              	MPU6050_setYGyroFIFOEnabled:
 1795              	.LFB41:
 628:mpu6050.c     **** /** Set gyroscope Y-axis FIFO enabled value.
 629:mpu6050.c     ****  * @param enabled New gyroscope Y-axis FIFO enabled value
 630:mpu6050.c     ****  * @see getYGyroFIFOEnabled()
 631:mpu6050.c     ****  * @see MPU6050_RA_FIFO_EN
 632:mpu6050.c     ****  */
 633:mpu6050.c     **** void MPU6050_setYGyroFIFOEnabled(bool enabled) {
 1796              		.loc 1 633 0
 1797              		.cfi_startproc
 1798              		@ args = 0, pretend = 0, frame = 8
 1799              		@ frame_needed = 1, uses_anonymous_args = 0
 1800 0000 80B5     		push	{r7, lr}
 1801              		.cfi_def_cfa_offset 8
 1802              		.cfi_offset 7, -8
 1803              		.cfi_offset 14, -4
 1804 0002 82B0     		sub	sp, sp, #8
 1805              		.cfi_def_cfa_offset 16
 1806 0004 00AF     		add	r7, sp, #0
 1807              		.cfi_def_cfa_register 7
 1808 0006 0346     		mov	r3, r0
 1809 0008 FB71     		strb	r3, [r7, #7]
 634:mpu6050.c     ****     I2CWriteBit(devAddr, MPU6050_RA_FIFO_EN, MPU6050_YG_FIFO_EN_BIT, enabled);
 1810              		.loc 1 634 0
 1811 000a 054B     		ldr	r3, .L141
 1812 000c 1A78     		ldrb	r2, [r3]	@ zero_extendqisi2
 1813 000e FB79     		ldrb	r3, [r7, #7]	@ zero_extendqisi2
 1814 0010 1046     		mov	r0, r2
 1815 0012 2321     		movs	r1, #35
 1816 0014 0522     		movs	r2, #5
 1817 0016 FFF7FEFF 		bl	I2CWriteBit
ARM GAS  C:\Users\jwgutter\AppData\Local\Temp\ccGcOqDB.s 			page 44


 635:mpu6050.c     **** }
 1818              		.loc 1 635 0
 1819 001a 0837     		adds	r7, r7, #8
 1820              		.cfi_def_cfa_offset 8
 1821 001c BD46     		mov	sp, r7
 1822              		.cfi_def_cfa_register 13
 1823              		@ sp needed
 1824 001e 80BD     		pop	{r7, pc}
 1825              	.L142:
 1826              		.align	2
 1827              	.L141:
 1828 0020 00000000 		.word	devAddr
 1829              		.cfi_endproc
 1830              	.LFE41:
 1831              		.size	MPU6050_setYGyroFIFOEnabled, .-MPU6050_setYGyroFIFOEnabled
 1832              		.section	.text.MPU6050_getZGyroFIFOEnabled,"ax",%progbits
 1833              		.align	2
 1834              		.global	MPU6050_getZGyroFIFOEnabled
 1835              		.thumb
 1836              		.thumb_func
 1837              		.type	MPU6050_getZGyroFIFOEnabled, %function
 1838              	MPU6050_getZGyroFIFOEnabled:
 1839              	.LFB42:
 636:mpu6050.c     **** /** Get gyroscope Z-axis FIFO enabled value.
 637:mpu6050.c     ****  * When set to 1, this bit enables GYRO_ZOUT_H and GYRO_ZOUT_L (Registers 71 and
 638:mpu6050.c     ****  * 72) to be written into the FIFO buffer.
 639:mpu6050.c     ****  * @return Current gyroscope Z-axis FIFO enabled value
 640:mpu6050.c     ****  * @see MPU6050_RA_FIFO_EN
 641:mpu6050.c     ****  */
 642:mpu6050.c     **** bool MPU6050_getZGyroFIFOEnabled() {
 1840              		.loc 1 642 0
 1841              		.cfi_startproc
 1842              		@ args = 0, pretend = 0, frame = 0
 1843              		@ frame_needed = 1, uses_anonymous_args = 0
 1844 0000 80B5     		push	{r7, lr}
 1845              		.cfi_def_cfa_offset 8
 1846              		.cfi_offset 7, -8
 1847              		.cfi_offset 14, -4
 1848 0002 00AF     		add	r7, sp, #0
 1849              		.cfi_def_cfa_register 7
 643:mpu6050.c     ****     I2CReadBit(devAddr, MPU6050_RA_FIFO_EN, MPU6050_ZG_FIFO_EN_BIT, buffer);
 1850              		.loc 1 643 0
 1851 0004 084B     		ldr	r3, .L145
 1852 0006 1B78     		ldrb	r3, [r3]	@ zero_extendqisi2
 1853 0008 1846     		mov	r0, r3
 1854 000a 2321     		movs	r1, #35
 1855 000c 0422     		movs	r2, #4
 1856 000e 074B     		ldr	r3, .L145+4
 1857 0010 FFF7FEFF 		bl	I2CReadBit
 644:mpu6050.c     ****     return buffer[0];
 1858              		.loc 1 644 0
 1859 0014 054B     		ldr	r3, .L145+4
 1860 0016 1B78     		ldrb	r3, [r3]	@ zero_extendqisi2
 1861 0018 002B     		cmp	r3, #0
 1862 001a 14BF     		ite	ne
 1863 001c 0123     		movne	r3, #1
 1864 001e 0023     		moveq	r3, #0
ARM GAS  C:\Users\jwgutter\AppData\Local\Temp\ccGcOqDB.s 			page 45


 1865 0020 DBB2     		uxtb	r3, r3
 645:mpu6050.c     **** }
 1866              		.loc 1 645 0
 1867 0022 1846     		mov	r0, r3
 1868 0024 80BD     		pop	{r7, pc}
 1869              	.L146:
 1870 0026 00BF     		.align	2
 1871              	.L145:
 1872 0028 00000000 		.word	devAddr
 1873 002c 00000000 		.word	buffer
 1874              		.cfi_endproc
 1875              	.LFE42:
 1876              		.size	MPU6050_getZGyroFIFOEnabled, .-MPU6050_getZGyroFIFOEnabled
 1877              		.section	.text.MPU6050_setZGyroFIFOEnabled,"ax",%progbits
 1878              		.align	2
 1879              		.global	MPU6050_setZGyroFIFOEnabled
 1880              		.thumb
 1881              		.thumb_func
 1882              		.type	MPU6050_setZGyroFIFOEnabled, %function
 1883              	MPU6050_setZGyroFIFOEnabled:
 1884              	.LFB43:
 646:mpu6050.c     **** /** Set gyroscope Z-axis FIFO enabled value.
 647:mpu6050.c     ****  * @param enabled New gyroscope Z-axis FIFO enabled value
 648:mpu6050.c     ****  * @see getZGyroFIFOEnabled()
 649:mpu6050.c     ****  * @see MPU6050_RA_FIFO_EN
 650:mpu6050.c     ****  */
 651:mpu6050.c     **** void MPU6050_setZGyroFIFOEnabled(bool enabled) {
 1885              		.loc 1 651 0
 1886              		.cfi_startproc
 1887              		@ args = 0, pretend = 0, frame = 8
 1888              		@ frame_needed = 1, uses_anonymous_args = 0
 1889 0000 80B5     		push	{r7, lr}
 1890              		.cfi_def_cfa_offset 8
 1891              		.cfi_offset 7, -8
 1892              		.cfi_offset 14, -4
 1893 0002 82B0     		sub	sp, sp, #8
 1894              		.cfi_def_cfa_offset 16
 1895 0004 00AF     		add	r7, sp, #0
 1896              		.cfi_def_cfa_register 7
 1897 0006 0346     		mov	r3, r0
 1898 0008 FB71     		strb	r3, [r7, #7]
 652:mpu6050.c     ****     I2CWriteBit(devAddr, MPU6050_RA_FIFO_EN, MPU6050_ZG_FIFO_EN_BIT, enabled);
 1899              		.loc 1 652 0
 1900 000a 054B     		ldr	r3, .L148
 1901 000c 1A78     		ldrb	r2, [r3]	@ zero_extendqisi2
 1902 000e FB79     		ldrb	r3, [r7, #7]	@ zero_extendqisi2
 1903 0010 1046     		mov	r0, r2
 1904 0012 2321     		movs	r1, #35
 1905 0014 0422     		movs	r2, #4
 1906 0016 FFF7FEFF 		bl	I2CWriteBit
 653:mpu6050.c     **** }
 1907              		.loc 1 653 0
 1908 001a 0837     		adds	r7, r7, #8
 1909              		.cfi_def_cfa_offset 8
 1910 001c BD46     		mov	sp, r7
 1911              		.cfi_def_cfa_register 13
 1912              		@ sp needed
ARM GAS  C:\Users\jwgutter\AppData\Local\Temp\ccGcOqDB.s 			page 46


 1913 001e 80BD     		pop	{r7, pc}
 1914              	.L149:
 1915              		.align	2
 1916              	.L148:
 1917 0020 00000000 		.word	devAddr
 1918              		.cfi_endproc
 1919              	.LFE43:
 1920              		.size	MPU6050_setZGyroFIFOEnabled, .-MPU6050_setZGyroFIFOEnabled
 1921              		.section	.text.MPU6050_getAccelFIFOEnabled,"ax",%progbits
 1922              		.align	2
 1923              		.global	MPU6050_getAccelFIFOEnabled
 1924              		.thumb
 1925              		.thumb_func
 1926              		.type	MPU6050_getAccelFIFOEnabled, %function
 1927              	MPU6050_getAccelFIFOEnabled:
 1928              	.LFB44:
 654:mpu6050.c     **** /** Get accelerometer FIFO enabled value.
 655:mpu6050.c     ****  * When set to 1, this bit enables ACCEL_XOUT_H, ACCEL_XOUT_L, ACCEL_YOUT_H,
 656:mpu6050.c     ****  * ACCEL_YOUT_L, ACCEL_ZOUT_H, and ACCEL_ZOUT_L (Registers 59 to 64) to be
 657:mpu6050.c     ****  * written into the FIFO buffer.
 658:mpu6050.c     ****  * @return Current accelerometer FIFO enabled value
 659:mpu6050.c     ****  * @see MPU6050_RA_FIFO_EN
 660:mpu6050.c     ****  */
 661:mpu6050.c     **** bool MPU6050_getAccelFIFOEnabled() {
 1929              		.loc 1 661 0
 1930              		.cfi_startproc
 1931              		@ args = 0, pretend = 0, frame = 0
 1932              		@ frame_needed = 1, uses_anonymous_args = 0
 1933 0000 80B5     		push	{r7, lr}
 1934              		.cfi_def_cfa_offset 8
 1935              		.cfi_offset 7, -8
 1936              		.cfi_offset 14, -4
 1937 0002 00AF     		add	r7, sp, #0
 1938              		.cfi_def_cfa_register 7
 662:mpu6050.c     ****     I2CReadBit(devAddr, MPU6050_RA_FIFO_EN, MPU6050_ACCEL_FIFO_EN_BIT, buffer);
 1939              		.loc 1 662 0
 1940 0004 084B     		ldr	r3, .L152
 1941 0006 1B78     		ldrb	r3, [r3]	@ zero_extendqisi2
 1942 0008 1846     		mov	r0, r3
 1943 000a 2321     		movs	r1, #35
 1944 000c 0322     		movs	r2, #3
 1945 000e 074B     		ldr	r3, .L152+4
 1946 0010 FFF7FEFF 		bl	I2CReadBit
 663:mpu6050.c     ****     return buffer[0];
 1947              		.loc 1 663 0
 1948 0014 054B     		ldr	r3, .L152+4
 1949 0016 1B78     		ldrb	r3, [r3]	@ zero_extendqisi2
 1950 0018 002B     		cmp	r3, #0
 1951 001a 14BF     		ite	ne
 1952 001c 0123     		movne	r3, #1
 1953 001e 0023     		moveq	r3, #0
 1954 0020 DBB2     		uxtb	r3, r3
 664:mpu6050.c     **** }
 1955              		.loc 1 664 0
 1956 0022 1846     		mov	r0, r3
 1957 0024 80BD     		pop	{r7, pc}
 1958              	.L153:
ARM GAS  C:\Users\jwgutter\AppData\Local\Temp\ccGcOqDB.s 			page 47


 1959 0026 00BF     		.align	2
 1960              	.L152:
 1961 0028 00000000 		.word	devAddr
 1962 002c 00000000 		.word	buffer
 1963              		.cfi_endproc
 1964              	.LFE44:
 1965              		.size	MPU6050_getAccelFIFOEnabled, .-MPU6050_getAccelFIFOEnabled
 1966              		.section	.text.MPU6050_setAccelFIFOEnabled,"ax",%progbits
 1967              		.align	2
 1968              		.global	MPU6050_setAccelFIFOEnabled
 1969              		.thumb
 1970              		.thumb_func
 1971              		.type	MPU6050_setAccelFIFOEnabled, %function
 1972              	MPU6050_setAccelFIFOEnabled:
 1973              	.LFB45:
 665:mpu6050.c     **** /** Set accelerometer FIFO enabled value.
 666:mpu6050.c     ****  * @param enabled New accelerometer FIFO enabled value
 667:mpu6050.c     ****  * @see getAccelFIFOEnabled()
 668:mpu6050.c     ****  * @see MPU6050_RA_FIFO_EN
 669:mpu6050.c     ****  */
 670:mpu6050.c     **** void MPU6050_setAccelFIFOEnabled(bool enabled) {
 1974              		.loc 1 670 0
 1975              		.cfi_startproc
 1976              		@ args = 0, pretend = 0, frame = 8
 1977              		@ frame_needed = 1, uses_anonymous_args = 0
 1978 0000 80B5     		push	{r7, lr}
 1979              		.cfi_def_cfa_offset 8
 1980              		.cfi_offset 7, -8
 1981              		.cfi_offset 14, -4
 1982 0002 82B0     		sub	sp, sp, #8
 1983              		.cfi_def_cfa_offset 16
 1984 0004 00AF     		add	r7, sp, #0
 1985              		.cfi_def_cfa_register 7
 1986 0006 0346     		mov	r3, r0
 1987 0008 FB71     		strb	r3, [r7, #7]
 671:mpu6050.c     ****     I2CWriteBit(devAddr, MPU6050_RA_FIFO_EN, MPU6050_ACCEL_FIFO_EN_BIT, enabled);
 1988              		.loc 1 671 0
 1989 000a 054B     		ldr	r3, .L155
 1990 000c 1A78     		ldrb	r2, [r3]	@ zero_extendqisi2
 1991 000e FB79     		ldrb	r3, [r7, #7]	@ zero_extendqisi2
 1992 0010 1046     		mov	r0, r2
 1993 0012 2321     		movs	r1, #35
 1994 0014 0322     		movs	r2, #3
 1995 0016 FFF7FEFF 		bl	I2CWriteBit
 672:mpu6050.c     **** }
 1996              		.loc 1 672 0
 1997 001a 0837     		adds	r7, r7, #8
 1998              		.cfi_def_cfa_offset 8
 1999 001c BD46     		mov	sp, r7
 2000              		.cfi_def_cfa_register 13
 2001              		@ sp needed
 2002 001e 80BD     		pop	{r7, pc}
 2003              	.L156:
 2004              		.align	2
 2005              	.L155:
 2006 0020 00000000 		.word	devAddr
 2007              		.cfi_endproc
ARM GAS  C:\Users\jwgutter\AppData\Local\Temp\ccGcOqDB.s 			page 48


 2008              	.LFE45:
 2009              		.size	MPU6050_setAccelFIFOEnabled, .-MPU6050_setAccelFIFOEnabled
 2010              		.section	.text.MPU6050_getSlave2FIFOEnabled,"ax",%progbits
 2011              		.align	2
 2012              		.global	MPU6050_getSlave2FIFOEnabled
 2013              		.thumb
 2014              		.thumb_func
 2015              		.type	MPU6050_getSlave2FIFOEnabled, %function
 2016              	MPU6050_getSlave2FIFOEnabled:
 2017              	.LFB46:
 673:mpu6050.c     **** /** Get Slave 2 FIFO enabled value.
 674:mpu6050.c     ****  * When set to 1, this bit enables EXT_SENS_DATA registers (Registers 73 to 96)
 675:mpu6050.c     ****  * associated with Slave 2 to be written into the FIFO buffer.
 676:mpu6050.c     ****  * @return Current Slave 2 FIFO enabled value
 677:mpu6050.c     ****  * @see MPU6050_RA_FIFO_EN
 678:mpu6050.c     ****  */
 679:mpu6050.c     **** bool MPU6050_getSlave2FIFOEnabled() {
 2018              		.loc 1 679 0
 2019              		.cfi_startproc
 2020              		@ args = 0, pretend = 0, frame = 0
 2021              		@ frame_needed = 1, uses_anonymous_args = 0
 2022 0000 80B5     		push	{r7, lr}
 2023              		.cfi_def_cfa_offset 8
 2024              		.cfi_offset 7, -8
 2025              		.cfi_offset 14, -4
 2026 0002 00AF     		add	r7, sp, #0
 2027              		.cfi_def_cfa_register 7
 680:mpu6050.c     ****     I2CReadBit(devAddr, MPU6050_RA_FIFO_EN, MPU6050_SLV2_FIFO_EN_BIT, buffer);
 2028              		.loc 1 680 0
 2029 0004 084B     		ldr	r3, .L159
 2030 0006 1B78     		ldrb	r3, [r3]	@ zero_extendqisi2
 2031 0008 1846     		mov	r0, r3
 2032 000a 2321     		movs	r1, #35
 2033 000c 0222     		movs	r2, #2
 2034 000e 074B     		ldr	r3, .L159+4
 2035 0010 FFF7FEFF 		bl	I2CReadBit
 681:mpu6050.c     ****     return buffer[0];
 2036              		.loc 1 681 0
 2037 0014 054B     		ldr	r3, .L159+4
 2038 0016 1B78     		ldrb	r3, [r3]	@ zero_extendqisi2
 2039 0018 002B     		cmp	r3, #0
 2040 001a 14BF     		ite	ne
 2041 001c 0123     		movne	r3, #1
 2042 001e 0023     		moveq	r3, #0
 2043 0020 DBB2     		uxtb	r3, r3
 682:mpu6050.c     **** }
 2044              		.loc 1 682 0
 2045 0022 1846     		mov	r0, r3
 2046 0024 80BD     		pop	{r7, pc}
 2047              	.L160:
 2048 0026 00BF     		.align	2
 2049              	.L159:
 2050 0028 00000000 		.word	devAddr
 2051 002c 00000000 		.word	buffer
 2052              		.cfi_endproc
 2053              	.LFE46:
 2054              		.size	MPU6050_getSlave2FIFOEnabled, .-MPU6050_getSlave2FIFOEnabled
ARM GAS  C:\Users\jwgutter\AppData\Local\Temp\ccGcOqDB.s 			page 49


 2055              		.section	.text.MPU6050_setSlave2FIFOEnabled,"ax",%progbits
 2056              		.align	2
 2057              		.global	MPU6050_setSlave2FIFOEnabled
 2058              		.thumb
 2059              		.thumb_func
 2060              		.type	MPU6050_setSlave2FIFOEnabled, %function
 2061              	MPU6050_setSlave2FIFOEnabled:
 2062              	.LFB47:
 683:mpu6050.c     **** /** Set Slave 2 FIFO enabled value.
 684:mpu6050.c     ****  * @param enabled New Slave 2 FIFO enabled value
 685:mpu6050.c     ****  * @see getSlave2FIFOEnabled()
 686:mpu6050.c     ****  * @see MPU6050_RA_FIFO_EN
 687:mpu6050.c     ****  */
 688:mpu6050.c     **** void MPU6050_setSlave2FIFOEnabled(bool enabled) {
 2063              		.loc 1 688 0
 2064              		.cfi_startproc
 2065              		@ args = 0, pretend = 0, frame = 8
 2066              		@ frame_needed = 1, uses_anonymous_args = 0
 2067 0000 80B5     		push	{r7, lr}
 2068              		.cfi_def_cfa_offset 8
 2069              		.cfi_offset 7, -8
 2070              		.cfi_offset 14, -4
 2071 0002 82B0     		sub	sp, sp, #8
 2072              		.cfi_def_cfa_offset 16
 2073 0004 00AF     		add	r7, sp, #0
 2074              		.cfi_def_cfa_register 7
 2075 0006 0346     		mov	r3, r0
 2076 0008 FB71     		strb	r3, [r7, #7]
 689:mpu6050.c     ****     I2CWriteBit(devAddr, MPU6050_RA_FIFO_EN, MPU6050_SLV2_FIFO_EN_BIT, enabled);
 2077              		.loc 1 689 0
 2078 000a 054B     		ldr	r3, .L162
 2079 000c 1A78     		ldrb	r2, [r3]	@ zero_extendqisi2
 2080 000e FB79     		ldrb	r3, [r7, #7]	@ zero_extendqisi2
 2081 0010 1046     		mov	r0, r2
 2082 0012 2321     		movs	r1, #35
 2083 0014 0222     		movs	r2, #2
 2084 0016 FFF7FEFF 		bl	I2CWriteBit
 690:mpu6050.c     **** }
 2085              		.loc 1 690 0
 2086 001a 0837     		adds	r7, r7, #8
 2087              		.cfi_def_cfa_offset 8
 2088 001c BD46     		mov	sp, r7
 2089              		.cfi_def_cfa_register 13
 2090              		@ sp needed
 2091 001e 80BD     		pop	{r7, pc}
 2092              	.L163:
 2093              		.align	2
 2094              	.L162:
 2095 0020 00000000 		.word	devAddr
 2096              		.cfi_endproc
 2097              	.LFE47:
 2098              		.size	MPU6050_setSlave2FIFOEnabled, .-MPU6050_setSlave2FIFOEnabled
 2099              		.section	.text.MPU6050_getSlave1FIFOEnabled,"ax",%progbits
 2100              		.align	2
 2101              		.global	MPU6050_getSlave1FIFOEnabled
 2102              		.thumb
 2103              		.thumb_func
ARM GAS  C:\Users\jwgutter\AppData\Local\Temp\ccGcOqDB.s 			page 50


 2104              		.type	MPU6050_getSlave1FIFOEnabled, %function
 2105              	MPU6050_getSlave1FIFOEnabled:
 2106              	.LFB48:
 691:mpu6050.c     **** /** Get Slave 1 FIFO enabled value.
 692:mpu6050.c     ****  * When set to 1, this bit enables EXT_SENS_DATA registers (Registers 73 to 96)
 693:mpu6050.c     ****  * associated with Slave 1 to be written into the FIFO buffer.
 694:mpu6050.c     ****  * @return Current Slave 1 FIFO enabled value
 695:mpu6050.c     ****  * @see MPU6050_RA_FIFO_EN
 696:mpu6050.c     ****  */
 697:mpu6050.c     **** bool MPU6050_getSlave1FIFOEnabled() {
 2107              		.loc 1 697 0
 2108              		.cfi_startproc
 2109              		@ args = 0, pretend = 0, frame = 0
 2110              		@ frame_needed = 1, uses_anonymous_args = 0
 2111 0000 80B5     		push	{r7, lr}
 2112              		.cfi_def_cfa_offset 8
 2113              		.cfi_offset 7, -8
 2114              		.cfi_offset 14, -4
 2115 0002 00AF     		add	r7, sp, #0
 2116              		.cfi_def_cfa_register 7
 698:mpu6050.c     ****     I2CReadBit(devAddr, MPU6050_RA_FIFO_EN, MPU6050_SLV1_FIFO_EN_BIT, buffer);
 2117              		.loc 1 698 0
 2118 0004 084B     		ldr	r3, .L166
 2119 0006 1B78     		ldrb	r3, [r3]	@ zero_extendqisi2
 2120 0008 1846     		mov	r0, r3
 2121 000a 2321     		movs	r1, #35
 2122 000c 0122     		movs	r2, #1
 2123 000e 074B     		ldr	r3, .L166+4
 2124 0010 FFF7FEFF 		bl	I2CReadBit
 699:mpu6050.c     ****     return buffer[0];
 2125              		.loc 1 699 0
 2126 0014 054B     		ldr	r3, .L166+4
 2127 0016 1B78     		ldrb	r3, [r3]	@ zero_extendqisi2
 2128 0018 002B     		cmp	r3, #0
 2129 001a 14BF     		ite	ne
 2130 001c 0123     		movne	r3, #1
 2131 001e 0023     		moveq	r3, #0
 2132 0020 DBB2     		uxtb	r3, r3
 700:mpu6050.c     **** }
 2133              		.loc 1 700 0
 2134 0022 1846     		mov	r0, r3
 2135 0024 80BD     		pop	{r7, pc}
 2136              	.L167:
 2137 0026 00BF     		.align	2
 2138              	.L166:
 2139 0028 00000000 		.word	devAddr
 2140 002c 00000000 		.word	buffer
 2141              		.cfi_endproc
 2142              	.LFE48:
 2143              		.size	MPU6050_getSlave1FIFOEnabled, .-MPU6050_getSlave1FIFOEnabled
 2144              		.section	.text.MPU6050_setSlave1FIFOEnabled,"ax",%progbits
 2145              		.align	2
 2146              		.global	MPU6050_setSlave1FIFOEnabled
 2147              		.thumb
 2148              		.thumb_func
 2149              		.type	MPU6050_setSlave1FIFOEnabled, %function
 2150              	MPU6050_setSlave1FIFOEnabled:
ARM GAS  C:\Users\jwgutter\AppData\Local\Temp\ccGcOqDB.s 			page 51


 2151              	.LFB49:
 701:mpu6050.c     **** /** Set Slave 1 FIFO enabled value.
 702:mpu6050.c     ****  * @param enabled New Slave 1 FIFO enabled value
 703:mpu6050.c     ****  * @see getSlave1FIFOEnabled()
 704:mpu6050.c     ****  * @see MPU6050_RA_FIFO_EN
 705:mpu6050.c     ****  */
 706:mpu6050.c     **** void MPU6050_setSlave1FIFOEnabled(bool enabled) {
 2152              		.loc 1 706 0
 2153              		.cfi_startproc
 2154              		@ args = 0, pretend = 0, frame = 8
 2155              		@ frame_needed = 1, uses_anonymous_args = 0
 2156 0000 80B5     		push	{r7, lr}
 2157              		.cfi_def_cfa_offset 8
 2158              		.cfi_offset 7, -8
 2159              		.cfi_offset 14, -4
 2160 0002 82B0     		sub	sp, sp, #8
 2161              		.cfi_def_cfa_offset 16
 2162 0004 00AF     		add	r7, sp, #0
 2163              		.cfi_def_cfa_register 7
 2164 0006 0346     		mov	r3, r0
 2165 0008 FB71     		strb	r3, [r7, #7]
 707:mpu6050.c     ****     I2CWriteBit(devAddr, MPU6050_RA_FIFO_EN, MPU6050_SLV1_FIFO_EN_BIT, enabled);
 2166              		.loc 1 707 0
 2167 000a 054B     		ldr	r3, .L169
 2168 000c 1A78     		ldrb	r2, [r3]	@ zero_extendqisi2
 2169 000e FB79     		ldrb	r3, [r7, #7]	@ zero_extendqisi2
 2170 0010 1046     		mov	r0, r2
 2171 0012 2321     		movs	r1, #35
 2172 0014 0122     		movs	r2, #1
 2173 0016 FFF7FEFF 		bl	I2CWriteBit
 708:mpu6050.c     **** }
 2174              		.loc 1 708 0
 2175 001a 0837     		adds	r7, r7, #8
 2176              		.cfi_def_cfa_offset 8
 2177 001c BD46     		mov	sp, r7
 2178              		.cfi_def_cfa_register 13
 2179              		@ sp needed
 2180 001e 80BD     		pop	{r7, pc}
 2181              	.L170:
 2182              		.align	2
 2183              	.L169:
 2184 0020 00000000 		.word	devAddr
 2185              		.cfi_endproc
 2186              	.LFE49:
 2187              		.size	MPU6050_setSlave1FIFOEnabled, .-MPU6050_setSlave1FIFOEnabled
 2188              		.section	.text.MPU6050_getSlave0FIFOEnabled,"ax",%progbits
 2189              		.align	2
 2190              		.global	MPU6050_getSlave0FIFOEnabled
 2191              		.thumb
 2192              		.thumb_func
 2193              		.type	MPU6050_getSlave0FIFOEnabled, %function
 2194              	MPU6050_getSlave0FIFOEnabled:
 2195              	.LFB50:
 709:mpu6050.c     **** /** Get Slave 0 FIFO enabled value.
 710:mpu6050.c     ****  * When set to 1, this bit enables EXT_SENS_DATA registers (Registers 73 to 96)
 711:mpu6050.c     ****  * associated with Slave 0 to be written into the FIFO buffer.
 712:mpu6050.c     ****  * @return Current Slave 0 FIFO enabled value
ARM GAS  C:\Users\jwgutter\AppData\Local\Temp\ccGcOqDB.s 			page 52


 713:mpu6050.c     ****  * @see MPU6050_RA_FIFO_EN
 714:mpu6050.c     ****  */
 715:mpu6050.c     **** bool MPU6050_getSlave0FIFOEnabled() {
 2196              		.loc 1 715 0
 2197              		.cfi_startproc
 2198              		@ args = 0, pretend = 0, frame = 0
 2199              		@ frame_needed = 1, uses_anonymous_args = 0
 2200 0000 80B5     		push	{r7, lr}
 2201              		.cfi_def_cfa_offset 8
 2202              		.cfi_offset 7, -8
 2203              		.cfi_offset 14, -4
 2204 0002 00AF     		add	r7, sp, #0
 2205              		.cfi_def_cfa_register 7
 716:mpu6050.c     ****     I2CReadBit(devAddr, MPU6050_RA_FIFO_EN, MPU6050_SLV0_FIFO_EN_BIT, buffer);
 2206              		.loc 1 716 0
 2207 0004 084B     		ldr	r3, .L173
 2208 0006 1B78     		ldrb	r3, [r3]	@ zero_extendqisi2
 2209 0008 1846     		mov	r0, r3
 2210 000a 2321     		movs	r1, #35
 2211 000c 0022     		movs	r2, #0
 2212 000e 074B     		ldr	r3, .L173+4
 2213 0010 FFF7FEFF 		bl	I2CReadBit
 717:mpu6050.c     ****     return buffer[0];
 2214              		.loc 1 717 0
 2215 0014 054B     		ldr	r3, .L173+4
 2216 0016 1B78     		ldrb	r3, [r3]	@ zero_extendqisi2
 2217 0018 002B     		cmp	r3, #0
 2218 001a 14BF     		ite	ne
 2219 001c 0123     		movne	r3, #1
 2220 001e 0023     		moveq	r3, #0
 2221 0020 DBB2     		uxtb	r3, r3
 718:mpu6050.c     **** }
 2222              		.loc 1 718 0
 2223 0022 1846     		mov	r0, r3
 2224 0024 80BD     		pop	{r7, pc}
 2225              	.L174:
 2226 0026 00BF     		.align	2
 2227              	.L173:
 2228 0028 00000000 		.word	devAddr
 2229 002c 00000000 		.word	buffer
 2230              		.cfi_endproc
 2231              	.LFE50:
 2232              		.size	MPU6050_getSlave0FIFOEnabled, .-MPU6050_getSlave0FIFOEnabled
 2233              		.section	.text.MPU6050_setSlave0FIFOEnabled,"ax",%progbits
 2234              		.align	2
 2235              		.global	MPU6050_setSlave0FIFOEnabled
 2236              		.thumb
 2237              		.thumb_func
 2238              		.type	MPU6050_setSlave0FIFOEnabled, %function
 2239              	MPU6050_setSlave0FIFOEnabled:
 2240              	.LFB51:
 719:mpu6050.c     **** /** Set Slave 0 FIFO enabled value.
 720:mpu6050.c     ****  * @param enabled New Slave 0 FIFO enabled value
 721:mpu6050.c     ****  * @see getSlave0FIFOEnabled()
 722:mpu6050.c     ****  * @see MPU6050_RA_FIFO_EN
 723:mpu6050.c     ****  */
 724:mpu6050.c     **** void MPU6050_setSlave0FIFOEnabled(bool enabled) {
ARM GAS  C:\Users\jwgutter\AppData\Local\Temp\ccGcOqDB.s 			page 53


 2241              		.loc 1 724 0
 2242              		.cfi_startproc
 2243              		@ args = 0, pretend = 0, frame = 8
 2244              		@ frame_needed = 1, uses_anonymous_args = 0
 2245 0000 80B5     		push	{r7, lr}
 2246              		.cfi_def_cfa_offset 8
 2247              		.cfi_offset 7, -8
 2248              		.cfi_offset 14, -4
 2249 0002 82B0     		sub	sp, sp, #8
 2250              		.cfi_def_cfa_offset 16
 2251 0004 00AF     		add	r7, sp, #0
 2252              		.cfi_def_cfa_register 7
 2253 0006 0346     		mov	r3, r0
 2254 0008 FB71     		strb	r3, [r7, #7]
 725:mpu6050.c     ****     I2CWriteBit(devAddr, MPU6050_RA_FIFO_EN, MPU6050_SLV0_FIFO_EN_BIT, enabled);
 2255              		.loc 1 725 0
 2256 000a 054B     		ldr	r3, .L176
 2257 000c 1A78     		ldrb	r2, [r3]	@ zero_extendqisi2
 2258 000e FB79     		ldrb	r3, [r7, #7]	@ zero_extendqisi2
 2259 0010 1046     		mov	r0, r2
 2260 0012 2321     		movs	r1, #35
 2261 0014 0022     		movs	r2, #0
 2262 0016 FFF7FEFF 		bl	I2CWriteBit
 726:mpu6050.c     **** }
 2263              		.loc 1 726 0
 2264 001a 0837     		adds	r7, r7, #8
 2265              		.cfi_def_cfa_offset 8
 2266 001c BD46     		mov	sp, r7
 2267              		.cfi_def_cfa_register 13
 2268              		@ sp needed
 2269 001e 80BD     		pop	{r7, pc}
 2270              	.L177:
 2271              		.align	2
 2272              	.L176:
 2273 0020 00000000 		.word	devAddr
 2274              		.cfi_endproc
 2275              	.LFE51:
 2276              		.size	MPU6050_setSlave0FIFOEnabled, .-MPU6050_setSlave0FIFOEnabled
 2277              		.section	.text.MPU6050_getMultiMasterEnabled,"ax",%progbits
 2278              		.align	2
 2279              		.global	MPU6050_getMultiMasterEnabled
 2280              		.thumb
 2281              		.thumb_func
 2282              		.type	MPU6050_getMultiMasterEnabled, %function
 2283              	MPU6050_getMultiMasterEnabled:
 2284              	.LFB52:
 727:mpu6050.c     **** 
 728:mpu6050.c     **** // I2C_MST_CTRL register
 729:mpu6050.c     **** 
 730:mpu6050.c     **** /** Get multi-master enabled value.
 731:mpu6050.c     ****  * Multi-master capability allows multiple I2C masters to operate on the same
 732:mpu6050.c     ****  * bus. In circuits where multi-master capability is required, set MULT_MST_EN
 733:mpu6050.c     ****  * to 1. This will increase current drawn by approximately 30uA.
 734:mpu6050.c     ****  *
 735:mpu6050.c     ****  * In circuits where multi-master capability is required, the state of the I2C
 736:mpu6050.c     ****  * bus must always be monitored by each separate I2C Master. Before an I2C
 737:mpu6050.c     ****  * Master can assume arbitration of the bus, it must first confirm that no other
ARM GAS  C:\Users\jwgutter\AppData\Local\Temp\ccGcOqDB.s 			page 54


 738:mpu6050.c     ****  * I2C Master has arbitration of the bus. When MULT_MST_EN is set to 1, the
 739:mpu6050.c     ****  * MPU-60X0's bus arbitration detection logic is turned on, enabling it to
 740:mpu6050.c     ****  * detect when the bus is available.
 741:mpu6050.c     ****  *
 742:mpu6050.c     ****  * @return Current multi-master enabled value
 743:mpu6050.c     ****  * @see MPU6050_RA_I2C_MST_CTRL
 744:mpu6050.c     ****  */
 745:mpu6050.c     **** bool MPU6050_getMultiMasterEnabled() {
 2285              		.loc 1 745 0
 2286              		.cfi_startproc
 2287              		@ args = 0, pretend = 0, frame = 0
 2288              		@ frame_needed = 1, uses_anonymous_args = 0
 2289 0000 80B5     		push	{r7, lr}
 2290              		.cfi_def_cfa_offset 8
 2291              		.cfi_offset 7, -8
 2292              		.cfi_offset 14, -4
 2293 0002 00AF     		add	r7, sp, #0
 2294              		.cfi_def_cfa_register 7
 746:mpu6050.c     ****     I2CReadBit(devAddr, MPU6050_RA_I2C_MST_CTRL, MPU6050_MULT_MST_EN_BIT, buffer);
 2295              		.loc 1 746 0
 2296 0004 084B     		ldr	r3, .L180
 2297 0006 1B78     		ldrb	r3, [r3]	@ zero_extendqisi2
 2298 0008 1846     		mov	r0, r3
 2299 000a 2421     		movs	r1, #36
 2300 000c 0722     		movs	r2, #7
 2301 000e 074B     		ldr	r3, .L180+4
 2302 0010 FFF7FEFF 		bl	I2CReadBit
 747:mpu6050.c     ****     return buffer[0];
 2303              		.loc 1 747 0
 2304 0014 054B     		ldr	r3, .L180+4
 2305 0016 1B78     		ldrb	r3, [r3]	@ zero_extendqisi2
 2306 0018 002B     		cmp	r3, #0
 2307 001a 14BF     		ite	ne
 2308 001c 0123     		movne	r3, #1
 2309 001e 0023     		moveq	r3, #0
 2310 0020 DBB2     		uxtb	r3, r3
 748:mpu6050.c     **** }
 2311              		.loc 1 748 0
 2312 0022 1846     		mov	r0, r3
 2313 0024 80BD     		pop	{r7, pc}
 2314              	.L181:
 2315 0026 00BF     		.align	2
 2316              	.L180:
 2317 0028 00000000 		.word	devAddr
 2318 002c 00000000 		.word	buffer
 2319              		.cfi_endproc
 2320              	.LFE52:
 2321              		.size	MPU6050_getMultiMasterEnabled, .-MPU6050_getMultiMasterEnabled
 2322              		.section	.text.MPU6050_setMultiMasterEnabled,"ax",%progbits
 2323              		.align	2
 2324              		.global	MPU6050_setMultiMasterEnabled
 2325              		.thumb
 2326              		.thumb_func
 2327              		.type	MPU6050_setMultiMasterEnabled, %function
 2328              	MPU6050_setMultiMasterEnabled:
 2329              	.LFB53:
 749:mpu6050.c     **** /** Set multi-master enabled value.
ARM GAS  C:\Users\jwgutter\AppData\Local\Temp\ccGcOqDB.s 			page 55


 750:mpu6050.c     ****  * @param enabled New multi-master enabled value
 751:mpu6050.c     ****  * @see getMultiMasterEnabled()
 752:mpu6050.c     ****  * @see MPU6050_RA_I2C_MST_CTRL
 753:mpu6050.c     ****  */
 754:mpu6050.c     **** void MPU6050_setMultiMasterEnabled(bool enabled) {
 2330              		.loc 1 754 0
 2331              		.cfi_startproc
 2332              		@ args = 0, pretend = 0, frame = 8
 2333              		@ frame_needed = 1, uses_anonymous_args = 0
 2334 0000 80B5     		push	{r7, lr}
 2335              		.cfi_def_cfa_offset 8
 2336              		.cfi_offset 7, -8
 2337              		.cfi_offset 14, -4
 2338 0002 82B0     		sub	sp, sp, #8
 2339              		.cfi_def_cfa_offset 16
 2340 0004 00AF     		add	r7, sp, #0
 2341              		.cfi_def_cfa_register 7
 2342 0006 0346     		mov	r3, r0
 2343 0008 FB71     		strb	r3, [r7, #7]
 755:mpu6050.c     ****     I2CWriteBit(devAddr, MPU6050_RA_I2C_MST_CTRL, MPU6050_MULT_MST_EN_BIT, enabled);
 2344              		.loc 1 755 0
 2345 000a 054B     		ldr	r3, .L183
 2346 000c 1A78     		ldrb	r2, [r3]	@ zero_extendqisi2
 2347 000e FB79     		ldrb	r3, [r7, #7]	@ zero_extendqisi2
 2348 0010 1046     		mov	r0, r2
 2349 0012 2421     		movs	r1, #36
 2350 0014 0722     		movs	r2, #7
 2351 0016 FFF7FEFF 		bl	I2CWriteBit
 756:mpu6050.c     **** }
 2352              		.loc 1 756 0
 2353 001a 0837     		adds	r7, r7, #8
 2354              		.cfi_def_cfa_offset 8
 2355 001c BD46     		mov	sp, r7
 2356              		.cfi_def_cfa_register 13
 2357              		@ sp needed
 2358 001e 80BD     		pop	{r7, pc}
 2359              	.L184:
 2360              		.align	2
 2361              	.L183:
 2362 0020 00000000 		.word	devAddr
 2363              		.cfi_endproc
 2364              	.LFE53:
 2365              		.size	MPU6050_setMultiMasterEnabled, .-MPU6050_setMultiMasterEnabled
 2366              		.section	.text.MPU6050_getWaitForExternalSensorEnabled,"ax",%progbits
 2367              		.align	2
 2368              		.global	MPU6050_getWaitForExternalSensorEnabled
 2369              		.thumb
 2370              		.thumb_func
 2371              		.type	MPU6050_getWaitForExternalSensorEnabled, %function
 2372              	MPU6050_getWaitForExternalSensorEnabled:
 2373              	.LFB54:
 757:mpu6050.c     **** /** Get wait-for-external-sensor-data enabled value.
 758:mpu6050.c     ****  * When the WAIT_FOR_ES bit is set to 1, the Data Ready interrupt will be
 759:mpu6050.c     ****  * delayed until External Sensor data from the Slave Devices are loaded into the
 760:mpu6050.c     ****  * EXT_SENS_DATA registers. This is used to ensure that both the internal sensor
 761:mpu6050.c     ****  * data (i.e. from gyro and accel) and external sensor data have been loaded to
 762:mpu6050.c     ****  * their respective data registers (i.e. the data is synced) when the Data Ready
ARM GAS  C:\Users\jwgutter\AppData\Local\Temp\ccGcOqDB.s 			page 56


 763:mpu6050.c     ****  * interrupt is triggered.
 764:mpu6050.c     ****  *
 765:mpu6050.c     ****  * @return Current wait-for-external-sensor-data enabled value
 766:mpu6050.c     ****  * @see MPU6050_RA_I2C_MST_CTRL
 767:mpu6050.c     ****  */
 768:mpu6050.c     **** bool MPU6050_getWaitForExternalSensorEnabled() {
 2374              		.loc 1 768 0
 2375              		.cfi_startproc
 2376              		@ args = 0, pretend = 0, frame = 0
 2377              		@ frame_needed = 1, uses_anonymous_args = 0
 2378 0000 80B5     		push	{r7, lr}
 2379              		.cfi_def_cfa_offset 8
 2380              		.cfi_offset 7, -8
 2381              		.cfi_offset 14, -4
 2382 0002 00AF     		add	r7, sp, #0
 2383              		.cfi_def_cfa_register 7
 769:mpu6050.c     ****     I2CReadBit(devAddr, MPU6050_RA_I2C_MST_CTRL, MPU6050_WAIT_FOR_ES_BIT, buffer);
 2384              		.loc 1 769 0
 2385 0004 084B     		ldr	r3, .L187
 2386 0006 1B78     		ldrb	r3, [r3]	@ zero_extendqisi2
 2387 0008 1846     		mov	r0, r3
 2388 000a 2421     		movs	r1, #36
 2389 000c 0622     		movs	r2, #6
 2390 000e 074B     		ldr	r3, .L187+4
 2391 0010 FFF7FEFF 		bl	I2CReadBit
 770:mpu6050.c     ****     return buffer[0];
 2392              		.loc 1 770 0
 2393 0014 054B     		ldr	r3, .L187+4
 2394 0016 1B78     		ldrb	r3, [r3]	@ zero_extendqisi2
 2395 0018 002B     		cmp	r3, #0
 2396 001a 14BF     		ite	ne
 2397 001c 0123     		movne	r3, #1
 2398 001e 0023     		moveq	r3, #0
 2399 0020 DBB2     		uxtb	r3, r3
 771:mpu6050.c     **** }
 2400              		.loc 1 771 0
 2401 0022 1846     		mov	r0, r3
 2402 0024 80BD     		pop	{r7, pc}
 2403              	.L188:
 2404 0026 00BF     		.align	2
 2405              	.L187:
 2406 0028 00000000 		.word	devAddr
 2407 002c 00000000 		.word	buffer
 2408              		.cfi_endproc
 2409              	.LFE54:
 2410              		.size	MPU6050_getWaitForExternalSensorEnabled, .-MPU6050_getWaitForExternalSensorEnabled
 2411              		.section	.text.MPU6050_setWaitForExternalSensorEnabled,"ax",%progbits
 2412              		.align	2
 2413              		.global	MPU6050_setWaitForExternalSensorEnabled
 2414              		.thumb
 2415              		.thumb_func
 2416              		.type	MPU6050_setWaitForExternalSensorEnabled, %function
 2417              	MPU6050_setWaitForExternalSensorEnabled:
 2418              	.LFB55:
 772:mpu6050.c     **** /** Set wait-for-external-sensor-data enabled value.
 773:mpu6050.c     ****  * @param enabled New wait-for-external-sensor-data enabled value
 774:mpu6050.c     ****  * @see getWaitForExternalSensorEnabled()
ARM GAS  C:\Users\jwgutter\AppData\Local\Temp\ccGcOqDB.s 			page 57


 775:mpu6050.c     ****  * @see MPU6050_RA_I2C_MST_CTRL
 776:mpu6050.c     ****  */
 777:mpu6050.c     **** void MPU6050_setWaitForExternalSensorEnabled(bool enabled) {
 2419              		.loc 1 777 0
 2420              		.cfi_startproc
 2421              		@ args = 0, pretend = 0, frame = 8
 2422              		@ frame_needed = 1, uses_anonymous_args = 0
 2423 0000 80B5     		push	{r7, lr}
 2424              		.cfi_def_cfa_offset 8
 2425              		.cfi_offset 7, -8
 2426              		.cfi_offset 14, -4
 2427 0002 82B0     		sub	sp, sp, #8
 2428              		.cfi_def_cfa_offset 16
 2429 0004 00AF     		add	r7, sp, #0
 2430              		.cfi_def_cfa_register 7
 2431 0006 0346     		mov	r3, r0
 2432 0008 FB71     		strb	r3, [r7, #7]
 778:mpu6050.c     ****     I2CWriteBit(devAddr, MPU6050_RA_I2C_MST_CTRL, MPU6050_WAIT_FOR_ES_BIT, enabled);
 2433              		.loc 1 778 0
 2434 000a 054B     		ldr	r3, .L190
 2435 000c 1A78     		ldrb	r2, [r3]	@ zero_extendqisi2
 2436 000e FB79     		ldrb	r3, [r7, #7]	@ zero_extendqisi2
 2437 0010 1046     		mov	r0, r2
 2438 0012 2421     		movs	r1, #36
 2439 0014 0622     		movs	r2, #6
 2440 0016 FFF7FEFF 		bl	I2CWriteBit
 779:mpu6050.c     **** }
 2441              		.loc 1 779 0
 2442 001a 0837     		adds	r7, r7, #8
 2443              		.cfi_def_cfa_offset 8
 2444 001c BD46     		mov	sp, r7
 2445              		.cfi_def_cfa_register 13
 2446              		@ sp needed
 2447 001e 80BD     		pop	{r7, pc}
 2448              	.L191:
 2449              		.align	2
 2450              	.L190:
 2451 0020 00000000 		.word	devAddr
 2452              		.cfi_endproc
 2453              	.LFE55:
 2454              		.size	MPU6050_setWaitForExternalSensorEnabled, .-MPU6050_setWaitForExternalSensorEnabled
 2455              		.section	.text.MPU6050_getSlave3FIFOEnabled,"ax",%progbits
 2456              		.align	2
 2457              		.global	MPU6050_getSlave3FIFOEnabled
 2458              		.thumb
 2459              		.thumb_func
 2460              		.type	MPU6050_getSlave3FIFOEnabled, %function
 2461              	MPU6050_getSlave3FIFOEnabled:
 2462              	.LFB56:
 780:mpu6050.c     **** /** Get Slave 3 FIFO enabled value.
 781:mpu6050.c     ****  * When set to 1, this bit enables EXT_SENS_DATA registers (Registers 73 to 96)
 782:mpu6050.c     ****  * associated with Slave 3 to be written into the FIFO buffer.
 783:mpu6050.c     ****  * @return Current Slave 3 FIFO enabled value
 784:mpu6050.c     ****  * @see MPU6050_RA_MST_CTRL
 785:mpu6050.c     ****  */
 786:mpu6050.c     **** bool MPU6050_getSlave3FIFOEnabled() {
 2463              		.loc 1 786 0
ARM GAS  C:\Users\jwgutter\AppData\Local\Temp\ccGcOqDB.s 			page 58


 2464              		.cfi_startproc
 2465              		@ args = 0, pretend = 0, frame = 0
 2466              		@ frame_needed = 1, uses_anonymous_args = 0
 2467 0000 80B5     		push	{r7, lr}
 2468              		.cfi_def_cfa_offset 8
 2469              		.cfi_offset 7, -8
 2470              		.cfi_offset 14, -4
 2471 0002 00AF     		add	r7, sp, #0
 2472              		.cfi_def_cfa_register 7
 787:mpu6050.c     ****     I2CReadBit(devAddr, MPU6050_RA_I2C_MST_CTRL, MPU6050_SLV_3_FIFO_EN_BIT, buffer);
 2473              		.loc 1 787 0
 2474 0004 084B     		ldr	r3, .L194
 2475 0006 1B78     		ldrb	r3, [r3]	@ zero_extendqisi2
 2476 0008 1846     		mov	r0, r3
 2477 000a 2421     		movs	r1, #36
 2478 000c 0522     		movs	r2, #5
 2479 000e 074B     		ldr	r3, .L194+4
 2480 0010 FFF7FEFF 		bl	I2CReadBit
 788:mpu6050.c     ****     return buffer[0];
 2481              		.loc 1 788 0
 2482 0014 054B     		ldr	r3, .L194+4
 2483 0016 1B78     		ldrb	r3, [r3]	@ zero_extendqisi2
 2484 0018 002B     		cmp	r3, #0
 2485 001a 14BF     		ite	ne
 2486 001c 0123     		movne	r3, #1
 2487 001e 0023     		moveq	r3, #0
 2488 0020 DBB2     		uxtb	r3, r3
 789:mpu6050.c     **** }
 2489              		.loc 1 789 0
 2490 0022 1846     		mov	r0, r3
 2491 0024 80BD     		pop	{r7, pc}
 2492              	.L195:
 2493 0026 00BF     		.align	2
 2494              	.L194:
 2495 0028 00000000 		.word	devAddr
 2496 002c 00000000 		.word	buffer
 2497              		.cfi_endproc
 2498              	.LFE56:
 2499              		.size	MPU6050_getSlave3FIFOEnabled, .-MPU6050_getSlave3FIFOEnabled
 2500              		.section	.text.MPU6050_setSlave3FIFOEnabled,"ax",%progbits
 2501              		.align	2
 2502              		.global	MPU6050_setSlave3FIFOEnabled
 2503              		.thumb
 2504              		.thumb_func
 2505              		.type	MPU6050_setSlave3FIFOEnabled, %function
 2506              	MPU6050_setSlave3FIFOEnabled:
 2507              	.LFB57:
 790:mpu6050.c     **** /** Set Slave 3 FIFO enabled value.
 791:mpu6050.c     ****  * @param enabled New Slave 3 FIFO enabled value
 792:mpu6050.c     ****  * @see getSlave3FIFOEnabled()
 793:mpu6050.c     ****  * @see MPU6050_RA_MST_CTRL
 794:mpu6050.c     ****  */
 795:mpu6050.c     **** void MPU6050_setSlave3FIFOEnabled(bool enabled) {
 2508              		.loc 1 795 0
 2509              		.cfi_startproc
 2510              		@ args = 0, pretend = 0, frame = 8
 2511              		@ frame_needed = 1, uses_anonymous_args = 0
ARM GAS  C:\Users\jwgutter\AppData\Local\Temp\ccGcOqDB.s 			page 59


 2512 0000 80B5     		push	{r7, lr}
 2513              		.cfi_def_cfa_offset 8
 2514              		.cfi_offset 7, -8
 2515              		.cfi_offset 14, -4
 2516 0002 82B0     		sub	sp, sp, #8
 2517              		.cfi_def_cfa_offset 16
 2518 0004 00AF     		add	r7, sp, #0
 2519              		.cfi_def_cfa_register 7
 2520 0006 0346     		mov	r3, r0
 2521 0008 FB71     		strb	r3, [r7, #7]
 796:mpu6050.c     ****     I2CWriteBit(devAddr, MPU6050_RA_I2C_MST_CTRL, MPU6050_SLV_3_FIFO_EN_BIT, enabled);
 2522              		.loc 1 796 0
 2523 000a 054B     		ldr	r3, .L197
 2524 000c 1A78     		ldrb	r2, [r3]	@ zero_extendqisi2
 2525 000e FB79     		ldrb	r3, [r7, #7]	@ zero_extendqisi2
 2526 0010 1046     		mov	r0, r2
 2527 0012 2421     		movs	r1, #36
 2528 0014 0522     		movs	r2, #5
 2529 0016 FFF7FEFF 		bl	I2CWriteBit
 797:mpu6050.c     **** }
 2530              		.loc 1 797 0
 2531 001a 0837     		adds	r7, r7, #8
 2532              		.cfi_def_cfa_offset 8
 2533 001c BD46     		mov	sp, r7
 2534              		.cfi_def_cfa_register 13
 2535              		@ sp needed
 2536 001e 80BD     		pop	{r7, pc}
 2537              	.L198:
 2538              		.align	2
 2539              	.L197:
 2540 0020 00000000 		.word	devAddr
 2541              		.cfi_endproc
 2542              	.LFE57:
 2543              		.size	MPU6050_setSlave3FIFOEnabled, .-MPU6050_setSlave3FIFOEnabled
 2544              		.section	.text.MPU6050_getSlaveReadWriteTransitionEnabled,"ax",%progbits
 2545              		.align	2
 2546              		.global	MPU6050_getSlaveReadWriteTransitionEnabled
 2547              		.thumb
 2548              		.thumb_func
 2549              		.type	MPU6050_getSlaveReadWriteTransitionEnabled, %function
 2550              	MPU6050_getSlaveReadWriteTransitionEnabled:
 2551              	.LFB58:
 798:mpu6050.c     **** /** Get slave read/write transition enabled value.
 799:mpu6050.c     ****  * The I2C_MST_P_NSR bit configures the I2C Master's transition from one slave
 800:mpu6050.c     ****  * read to the next slave read. If the bit equals 0, there will be a restart
 801:mpu6050.c     ****  * between reads. If the bit equals 1, there will be a stop followed by a start
 802:mpu6050.c     ****  * of the following read. When a write transaction follows a read transaction,
 803:mpu6050.c     ****  * the stop followed by a start of the successive write will be always used.
 804:mpu6050.c     ****  *
 805:mpu6050.c     ****  * @return Current slave read/write transition enabled value
 806:mpu6050.c     ****  * @see MPU6050_RA_I2C_MST_CTRL
 807:mpu6050.c     ****  */
 808:mpu6050.c     **** bool MPU6050_getSlaveReadWriteTransitionEnabled() {
 2552              		.loc 1 808 0
 2553              		.cfi_startproc
 2554              		@ args = 0, pretend = 0, frame = 0
 2555              		@ frame_needed = 1, uses_anonymous_args = 0
ARM GAS  C:\Users\jwgutter\AppData\Local\Temp\ccGcOqDB.s 			page 60


 2556 0000 80B5     		push	{r7, lr}
 2557              		.cfi_def_cfa_offset 8
 2558              		.cfi_offset 7, -8
 2559              		.cfi_offset 14, -4
 2560 0002 00AF     		add	r7, sp, #0
 2561              		.cfi_def_cfa_register 7
 809:mpu6050.c     ****     I2CReadBit(devAddr, MPU6050_RA_I2C_MST_CTRL, I2C_MPU6050_I2C_MST_P_NSR_BIT, buffer);
 2562              		.loc 1 809 0
 2563 0004 084B     		ldr	r3, .L201
 2564 0006 1B78     		ldrb	r3, [r3]	@ zero_extendqisi2
 2565 0008 1846     		mov	r0, r3
 2566 000a 2421     		movs	r1, #36
 2567 000c 0422     		movs	r2, #4
 2568 000e 074B     		ldr	r3, .L201+4
 2569 0010 FFF7FEFF 		bl	I2CReadBit
 810:mpu6050.c     ****     return buffer[0];
 2570              		.loc 1 810 0
 2571 0014 054B     		ldr	r3, .L201+4
 2572 0016 1B78     		ldrb	r3, [r3]	@ zero_extendqisi2
 2573 0018 002B     		cmp	r3, #0
 2574 001a 14BF     		ite	ne
 2575 001c 0123     		movne	r3, #1
 2576 001e 0023     		moveq	r3, #0
 2577 0020 DBB2     		uxtb	r3, r3
 811:mpu6050.c     **** }
 2578              		.loc 1 811 0
 2579 0022 1846     		mov	r0, r3
 2580 0024 80BD     		pop	{r7, pc}
 2581              	.L202:
 2582 0026 00BF     		.align	2
 2583              	.L201:
 2584 0028 00000000 		.word	devAddr
 2585 002c 00000000 		.word	buffer
 2586              		.cfi_endproc
 2587              	.LFE58:
 2588              		.size	MPU6050_getSlaveReadWriteTransitionEnabled, .-MPU6050_getSlaveReadWriteTransitionEnabled
 2589              		.section	.text.MPU6050_setSlaveReadWriteTransitionEnabled,"ax",%progbits
 2590              		.align	2
 2591              		.global	MPU6050_setSlaveReadWriteTransitionEnabled
 2592              		.thumb
 2593              		.thumb_func
 2594              		.type	MPU6050_setSlaveReadWriteTransitionEnabled, %function
 2595              	MPU6050_setSlaveReadWriteTransitionEnabled:
 2596              	.LFB59:
 812:mpu6050.c     **** /** Set slave read/write transition enabled value.
 813:mpu6050.c     ****  * @param enabled New slave read/write transition enabled value
 814:mpu6050.c     ****  * @see getSlaveReadWriteTransitionEnabled()
 815:mpu6050.c     ****  * @see MPU6050_RA_I2C_MST_CTRL
 816:mpu6050.c     ****  */
 817:mpu6050.c     **** void MPU6050_setSlaveReadWriteTransitionEnabled(bool enabled) {
 2597              		.loc 1 817 0
 2598              		.cfi_startproc
 2599              		@ args = 0, pretend = 0, frame = 8
 2600              		@ frame_needed = 1, uses_anonymous_args = 0
 2601 0000 80B5     		push	{r7, lr}
 2602              		.cfi_def_cfa_offset 8
 2603              		.cfi_offset 7, -8
ARM GAS  C:\Users\jwgutter\AppData\Local\Temp\ccGcOqDB.s 			page 61


 2604              		.cfi_offset 14, -4
 2605 0002 82B0     		sub	sp, sp, #8
 2606              		.cfi_def_cfa_offset 16
 2607 0004 00AF     		add	r7, sp, #0
 2608              		.cfi_def_cfa_register 7
 2609 0006 0346     		mov	r3, r0
 2610 0008 FB71     		strb	r3, [r7, #7]
 818:mpu6050.c     ****     I2CWriteBit(devAddr, MPU6050_RA_I2C_MST_CTRL, I2C_MPU6050_I2C_MST_P_NSR_BIT, enabled);
 2611              		.loc 1 818 0
 2612 000a 054B     		ldr	r3, .L204
 2613 000c 1A78     		ldrb	r2, [r3]	@ zero_extendqisi2
 2614 000e FB79     		ldrb	r3, [r7, #7]	@ zero_extendqisi2
 2615 0010 1046     		mov	r0, r2
 2616 0012 2421     		movs	r1, #36
 2617 0014 0422     		movs	r2, #4
 2618 0016 FFF7FEFF 		bl	I2CWriteBit
 819:mpu6050.c     **** }
 2619              		.loc 1 819 0
 2620 001a 0837     		adds	r7, r7, #8
 2621              		.cfi_def_cfa_offset 8
 2622 001c BD46     		mov	sp, r7
 2623              		.cfi_def_cfa_register 13
 2624              		@ sp needed
 2625 001e 80BD     		pop	{r7, pc}
 2626              	.L205:
 2627              		.align	2
 2628              	.L204:
 2629 0020 00000000 		.word	devAddr
 2630              		.cfi_endproc
 2631              	.LFE59:
 2632              		.size	MPU6050_setSlaveReadWriteTransitionEnabled, .-MPU6050_setSlaveReadWriteTransitionEnabled
 2633              		.section	.text.MPU6050_getMasterClockSpeed,"ax",%progbits
 2634              		.align	2
 2635              		.global	MPU6050_getMasterClockSpeed
 2636              		.thumb
 2637              		.thumb_func
 2638              		.type	MPU6050_getMasterClockSpeed, %function
 2639              	MPU6050_getMasterClockSpeed:
 2640              	.LFB60:
 820:mpu6050.c     **** /** Get I2C master clock speed.
 821:mpu6050.c     ****  * I2C_MST_CLK is a 4 bit unsigned value which configures a divider on the
 822:mpu6050.c     ****  * MPU-60X0 internal 8MHz clock. It sets the I2C master clock speed according to
 823:mpu6050.c     ****  * the following table:
 824:mpu6050.c     ****  *
 825:mpu6050.c     ****  * <pre>
 826:mpu6050.c     ****  * I2C_MST_CLK | I2C Master Clock Speed | 8MHz Clock Divider
 827:mpu6050.c     ****  * ------------+------------------------+-------------------
 828:mpu6050.c     ****  * 0           | 348kHz                 | 23
 829:mpu6050.c     ****  * 1           | 333kHz                 | 24
 830:mpu6050.c     ****  * 2           | 320kHz                 | 25
 831:mpu6050.c     ****  * 3           | 308kHz                 | 26
 832:mpu6050.c     ****  * 4           | 296kHz                 | 27
 833:mpu6050.c     ****  * 5           | 286kHz                 | 28
 834:mpu6050.c     ****  * 6           | 276kHz                 | 29
 835:mpu6050.c     ****  * 7           | 267kHz                 | 30
 836:mpu6050.c     ****  * 8           | 258kHz                 | 31
 837:mpu6050.c     ****  * 9           | 500kHz                 | 16
ARM GAS  C:\Users\jwgutter\AppData\Local\Temp\ccGcOqDB.s 			page 62


 838:mpu6050.c     ****  * 10          | 471kHz                 | 17
 839:mpu6050.c     ****  * 11          | 444kHz                 | 18
 840:mpu6050.c     ****  * 12          | 421kHz                 | 19
 841:mpu6050.c     ****  * 13          | 400kHz                 | 20
 842:mpu6050.c     ****  * 14          | 381kHz                 | 21
 843:mpu6050.c     ****  * 15          | 364kHz                 | 22
 844:mpu6050.c     ****  * </pre>
 845:mpu6050.c     ****  *
 846:mpu6050.c     ****  * @return Current I2C master clock speed
 847:mpu6050.c     ****  * @see MPU6050_RA_I2C_MST_CTRL
 848:mpu6050.c     ****  */
 849:mpu6050.c     **** uint8_t MPU6050_getMasterClockSpeed() {
 2641              		.loc 1 849 0
 2642              		.cfi_startproc
 2643              		@ args = 0, pretend = 0, frame = 0
 2644              		@ frame_needed = 1, uses_anonymous_args = 0
 2645 0000 80B5     		push	{r7, lr}
 2646              		.cfi_def_cfa_offset 8
 2647              		.cfi_offset 7, -8
 2648              		.cfi_offset 14, -4
 2649 0002 82B0     		sub	sp, sp, #8
 2650              		.cfi_def_cfa_offset 16
 2651 0004 02AF     		add	r7, sp, #8
 2652              		.cfi_def_cfa 7, 8
 850:mpu6050.c     ****     I2CReadBits(devAddr, MPU6050_RA_I2C_MST_CTRL, I2C_MPU6050_I2C_MST_CLK_BIT, I2C_MPU6050_I2C_MST_
 2653              		.loc 1 850 0
 2654 0006 074B     		ldr	r3, .L208
 2655 0008 1A78     		ldrb	r2, [r3]	@ zero_extendqisi2
 2656 000a 074B     		ldr	r3, .L208+4
 2657 000c 0093     		str	r3, [sp]
 2658 000e 1046     		mov	r0, r2
 2659 0010 2421     		movs	r1, #36
 2660 0012 0322     		movs	r2, #3
 2661 0014 0423     		movs	r3, #4
 2662 0016 FFF7FEFF 		bl	I2CReadBits
 851:mpu6050.c     ****     return buffer[0];
 2663              		.loc 1 851 0
 2664 001a 034B     		ldr	r3, .L208+4
 2665 001c 1B78     		ldrb	r3, [r3]	@ zero_extendqisi2
 852:mpu6050.c     **** }
 2666              		.loc 1 852 0
 2667 001e 1846     		mov	r0, r3
 2668 0020 BD46     		mov	sp, r7
 2669              		.cfi_def_cfa_register 13
 2670              		@ sp needed
 2671 0022 80BD     		pop	{r7, pc}
 2672              	.L209:
 2673              		.align	2
 2674              	.L208:
 2675 0024 00000000 		.word	devAddr
 2676 0028 00000000 		.word	buffer
 2677              		.cfi_endproc
 2678              	.LFE60:
 2679              		.size	MPU6050_getMasterClockSpeed, .-MPU6050_getMasterClockSpeed
 2680              		.section	.text.MPU6050_setMasterClockSpeed,"ax",%progbits
 2681              		.align	2
 2682              		.global	MPU6050_setMasterClockSpeed
ARM GAS  C:\Users\jwgutter\AppData\Local\Temp\ccGcOqDB.s 			page 63


 2683              		.thumb
 2684              		.thumb_func
 2685              		.type	MPU6050_setMasterClockSpeed, %function
 2686              	MPU6050_setMasterClockSpeed:
 2687              	.LFB61:
 853:mpu6050.c     **** /** Set I2C master clock speed.
 854:mpu6050.c     ****  * @reparam speed Current I2C master clock speed
 855:mpu6050.c     ****  * @see MPU6050_RA_I2C_MST_CTRL
 856:mpu6050.c     ****  */
 857:mpu6050.c     **** void MPU6050_setMasterClockSpeed(uint8_t speed) {
 2688              		.loc 1 857 0
 2689              		.cfi_startproc
 2690              		@ args = 0, pretend = 0, frame = 8
 2691              		@ frame_needed = 1, uses_anonymous_args = 0
 2692 0000 80B5     		push	{r7, lr}
 2693              		.cfi_def_cfa_offset 8
 2694              		.cfi_offset 7, -8
 2695              		.cfi_offset 14, -4
 2696 0002 84B0     		sub	sp, sp, #16
 2697              		.cfi_def_cfa_offset 24
 2698 0004 02AF     		add	r7, sp, #8
 2699              		.cfi_def_cfa 7, 16
 2700 0006 0346     		mov	r3, r0
 2701 0008 FB71     		strb	r3, [r7, #7]
 858:mpu6050.c     ****     I2CWriteBits(devAddr, MPU6050_RA_I2C_MST_CTRL, I2C_MPU6050_I2C_MST_CLK_BIT, I2C_MPU6050_I2C_MST
 2702              		.loc 1 858 0
 2703 000a 064B     		ldr	r3, .L211
 2704 000c 1A78     		ldrb	r2, [r3]	@ zero_extendqisi2
 2705 000e FB79     		ldrb	r3, [r7, #7]	@ zero_extendqisi2
 2706 0010 0093     		str	r3, [sp]
 2707 0012 1046     		mov	r0, r2
 2708 0014 2421     		movs	r1, #36
 2709 0016 0322     		movs	r2, #3
 2710 0018 0423     		movs	r3, #4
 2711 001a FFF7FEFF 		bl	I2CWriteBits
 859:mpu6050.c     **** }
 2712              		.loc 1 859 0
 2713 001e 0837     		adds	r7, r7, #8
 2714              		.cfi_def_cfa_offset 8
 2715 0020 BD46     		mov	sp, r7
 2716              		.cfi_def_cfa_register 13
 2717              		@ sp needed
 2718 0022 80BD     		pop	{r7, pc}
 2719              	.L212:
 2720              		.align	2
 2721              	.L211:
 2722 0024 00000000 		.word	devAddr
 2723              		.cfi_endproc
 2724              	.LFE61:
 2725              		.size	MPU6050_setMasterClockSpeed, .-MPU6050_setMasterClockSpeed
 2726              		.section	.text.MPU6050_getSlaveAddress,"ax",%progbits
 2727              		.align	2
 2728              		.global	MPU6050_getSlaveAddress
 2729              		.thumb
 2730              		.thumb_func
 2731              		.type	MPU6050_getSlaveAddress, %function
 2732              	MPU6050_getSlaveAddress:
ARM GAS  C:\Users\jwgutter\AppData\Local\Temp\ccGcOqDB.s 			page 64


 2733              	.LFB62:
 860:mpu6050.c     **** 
 861:mpu6050.c     **** // I2C_SLV* registers (Slave 0-3)
 862:mpu6050.c     **** 
 863:mpu6050.c     **** /** Get the I2C address of the specified slave (0-3).
 864:mpu6050.c     ****  * Note that Bit 7 (MSB) controls read/write mode. If Bit 7 is set, it's a read
 865:mpu6050.c     ****  * operation, and if it is cleared, then it's a write operation. The remaining
 866:mpu6050.c     ****  * bits (6-0) are the 7-bit device address of the slave device.
 867:mpu6050.c     ****  *
 868:mpu6050.c     ****  * In read mode, the result of the read is placed in the lowest available 
 869:mpu6050.c     ****  * EXT_SENS_DATA register. For further information regarding the allocation of
 870:mpu6050.c     ****  * read results, please refer to the EXT_SENS_DATA register description
 871:mpu6050.c     ****  * (Registers 73 - 96).
 872:mpu6050.c     ****  *
 873:mpu6050.c     ****  * The MPU-6050 supports a total of five slaves, but Slave 4 has unique
 874:mpu6050.c     ****  * characteristics, and so it has its own functions (getSlave4* and setSlave4*).
 875:mpu6050.c     ****  *
 876:mpu6050.c     ****  * I2C data transactions are performed at the Sample Rate, as defined in
 877:mpu6050.c     ****  * Register 25. The user is responsible for ensuring that I2C data transactions
 878:mpu6050.c     ****  * to and from each enabled Slave can be completed within a single period of the
 879:mpu6050.c     ****  * Sample Rate.
 880:mpu6050.c     ****  *
 881:mpu6050.c     ****  * The I2C slave access rate can be reduced relative to the Sample Rate. This
 882:mpu6050.c     ****  * reduced access rate is determined by I2C_MST_DLY (Register 52). Whether a
 883:mpu6050.c     ****  * slave's access rate is reduced relative to the Sample Rate is determined by
 884:mpu6050.c     ****  * I2C_MST_DELAY_CTRL (Register 103).
 885:mpu6050.c     ****  *
 886:mpu6050.c     ****  * The processing order for the slaves is fixed. The sequence followed for
 887:mpu6050.c     ****  * processing the slaves is Slave 0, Slave 1, Slave 2, Slave 3 and Slave 4. If a
 888:mpu6050.c     ****  * particular Slave is disabled it will be skipped.
 889:mpu6050.c     ****  *
 890:mpu6050.c     ****  * Each slave can either be accessed at the sample rate or at a reduced sample
 891:mpu6050.c     ****  * rate. In a case where some slaves are accessed at the Sample Rate and some
 892:mpu6050.c     ****  * slaves are accessed at the reduced rate, the sequence of accessing the slaves
 893:mpu6050.c     ****  * (Slave 0 to Slave 4) is still followed. However, the reduced rate slaves will
 894:mpu6050.c     ****  * be skipped if their access rate dictates that they should not be accessed
 895:mpu6050.c     ****  * during that particular cycle. For further information regarding the reduced
 896:mpu6050.c     ****  * access rate, please refer to Register 52. Whether a slave is accessed at the
 897:mpu6050.c     ****  * Sample Rate or at the reduced rate is determined by the Delay Enable bits in
 898:mpu6050.c     ****  * Register 103.
 899:mpu6050.c     ****  *
 900:mpu6050.c     ****  * @param num Slave number (0-3)
 901:mpu6050.c     ****  * @return Current address for specified slave
 902:mpu6050.c     ****  * @see MPU6050_RA_I2C_SLV0_ADDR
 903:mpu6050.c     ****  */
 904:mpu6050.c     **** uint8_t MPU6050_getSlaveAddress(uint8_t num) {
 2734              		.loc 1 904 0
 2735              		.cfi_startproc
 2736              		@ args = 0, pretend = 0, frame = 8
 2737              		@ frame_needed = 1, uses_anonymous_args = 0
 2738 0000 80B5     		push	{r7, lr}
 2739              		.cfi_def_cfa_offset 8
 2740              		.cfi_offset 7, -8
 2741              		.cfi_offset 14, -4
 2742 0002 82B0     		sub	sp, sp, #8
 2743              		.cfi_def_cfa_offset 16
 2744 0004 00AF     		add	r7, sp, #0
ARM GAS  C:\Users\jwgutter\AppData\Local\Temp\ccGcOqDB.s 			page 65


 2745              		.cfi_def_cfa_register 7
 2746 0006 0346     		mov	r3, r0
 2747 0008 FB71     		strb	r3, [r7, #7]
 905:mpu6050.c     ****     if (num > 3) return 0;
 2748              		.loc 1 905 0
 2749 000a FB79     		ldrb	r3, [r7, #7]	@ zero_extendqisi2
 2750 000c 032B     		cmp	r3, #3
 2751 000e 01D9     		bls	.L214
 2752              		.loc 1 905 0 is_stmt 0 discriminator 1
 2753 0010 0023     		movs	r3, #0
 2754 0012 0FE0     		b	.L215
 2755              	.L214:
 906:mpu6050.c     ****     I2CReadByte(devAddr, MPU6050_RA_I2C_SLV0_ADDR + num*3, buffer);
 2756              		.loc 1 906 0 is_stmt 1
 2757 0014 094B     		ldr	r3, .L216
 2758 0016 1A78     		ldrb	r2, [r3]	@ zero_extendqisi2
 2759 0018 FB79     		ldrb	r3, [r7, #7]
 2760 001a 1946     		mov	r1, r3
 2761 001c 4900     		lsls	r1, r1, #1
 2762 001e 0B44     		add	r3, r3, r1
 2763 0020 DBB2     		uxtb	r3, r3
 2764 0022 2533     		adds	r3, r3, #37
 2765 0024 DBB2     		uxtb	r3, r3
 2766 0026 1046     		mov	r0, r2
 2767 0028 1946     		mov	r1, r3
 2768 002a 054A     		ldr	r2, .L216+4
 2769 002c FFF7FEFF 		bl	I2CReadByte
 907:mpu6050.c     ****     return buffer[0];
 2770              		.loc 1 907 0
 2771 0030 034B     		ldr	r3, .L216+4
 2772 0032 1B78     		ldrb	r3, [r3]	@ zero_extendqisi2
 2773              	.L215:
 908:mpu6050.c     **** }
 2774              		.loc 1 908 0
 2775 0034 1846     		mov	r0, r3
 2776 0036 0837     		adds	r7, r7, #8
 2777              		.cfi_def_cfa_offset 8
 2778 0038 BD46     		mov	sp, r7
 2779              		.cfi_def_cfa_register 13
 2780              		@ sp needed
 2781 003a 80BD     		pop	{r7, pc}
 2782              	.L217:
 2783              		.align	2
 2784              	.L216:
 2785 003c 00000000 		.word	devAddr
 2786 0040 00000000 		.word	buffer
 2787              		.cfi_endproc
 2788              	.LFE62:
 2789              		.size	MPU6050_getSlaveAddress, .-MPU6050_getSlaveAddress
 2790              		.section	.text.MPU6050_setSlaveAddress,"ax",%progbits
 2791              		.align	2
 2792              		.global	MPU6050_setSlaveAddress
 2793              		.thumb
 2794              		.thumb_func
 2795              		.type	MPU6050_setSlaveAddress, %function
 2796              	MPU6050_setSlaveAddress:
 2797              	.LFB63:
ARM GAS  C:\Users\jwgutter\AppData\Local\Temp\ccGcOqDB.s 			page 66


 909:mpu6050.c     **** /** Set the I2C address of the specified slave (0-3).
 910:mpu6050.c     ****  * @param num Slave number (0-3)
 911:mpu6050.c     ****  * @param address New address for specified slave
 912:mpu6050.c     ****  * @see getSlaveAddress()
 913:mpu6050.c     ****  * @see MPU6050_RA_I2C_SLV0_ADDR
 914:mpu6050.c     ****  */
 915:mpu6050.c     **** void MPU6050_setSlaveAddress(uint8_t num, uint8_t address) {
 2798              		.loc 1 915 0
 2799              		.cfi_startproc
 2800              		@ args = 0, pretend = 0, frame = 8
 2801              		@ frame_needed = 1, uses_anonymous_args = 0
 2802 0000 80B5     		push	{r7, lr}
 2803              		.cfi_def_cfa_offset 8
 2804              		.cfi_offset 7, -8
 2805              		.cfi_offset 14, -4
 2806 0002 82B0     		sub	sp, sp, #8
 2807              		.cfi_def_cfa_offset 16
 2808 0004 00AF     		add	r7, sp, #0
 2809              		.cfi_def_cfa_register 7
 2810 0006 0346     		mov	r3, r0
 2811 0008 0A46     		mov	r2, r1
 2812 000a FB71     		strb	r3, [r7, #7]
 2813 000c 1346     		mov	r3, r2
 2814 000e BB71     		strb	r3, [r7, #6]
 916:mpu6050.c     ****     if (num > 3) return;
 2815              		.loc 1 916 0
 2816 0010 FB79     		ldrb	r3, [r7, #7]	@ zero_extendqisi2
 2817 0012 032B     		cmp	r3, #3
 2818 0014 00D9     		bls	.L219
 2819 0016 0EE0     		b	.L218
 2820              	.L219:
 917:mpu6050.c     ****     I2CWriteByte(devAddr, MPU6050_RA_I2C_SLV0_ADDR + num*3, address);
 2821              		.loc 1 917 0
 2822 0018 084B     		ldr	r3, .L221
 2823 001a 1978     		ldrb	r1, [r3]	@ zero_extendqisi2
 2824 001c FB79     		ldrb	r3, [r7, #7]
 2825 001e 1A46     		mov	r2, r3
 2826 0020 5200     		lsls	r2, r2, #1
 2827 0022 1344     		add	r3, r3, r2
 2828 0024 DBB2     		uxtb	r3, r3
 2829 0026 2533     		adds	r3, r3, #37
 2830 0028 DAB2     		uxtb	r2, r3
 2831 002a BB79     		ldrb	r3, [r7, #6]	@ zero_extendqisi2
 2832 002c 0846     		mov	r0, r1
 2833 002e 1146     		mov	r1, r2
 2834 0030 1A46     		mov	r2, r3
 2835 0032 FFF7FEFF 		bl	I2CWriteByte
 2836              	.L218:
 918:mpu6050.c     **** }
 2837              		.loc 1 918 0
 2838 0036 0837     		adds	r7, r7, #8
 2839              		.cfi_def_cfa_offset 8
 2840 0038 BD46     		mov	sp, r7
 2841              		.cfi_def_cfa_register 13
 2842              		@ sp needed
 2843 003a 80BD     		pop	{r7, pc}
 2844              	.L222:
ARM GAS  C:\Users\jwgutter\AppData\Local\Temp\ccGcOqDB.s 			page 67


 2845              		.align	2
 2846              	.L221:
 2847 003c 00000000 		.word	devAddr
 2848              		.cfi_endproc
 2849              	.LFE63:
 2850              		.size	MPU6050_setSlaveAddress, .-MPU6050_setSlaveAddress
 2851              		.section	.text.MPU6050_getSlaveRegister,"ax",%progbits
 2852              		.align	2
 2853              		.global	MPU6050_getSlaveRegister
 2854              		.thumb
 2855              		.thumb_func
 2856              		.type	MPU6050_getSlaveRegister, %function
 2857              	MPU6050_getSlaveRegister:
 2858              	.LFB64:
 919:mpu6050.c     **** /** Get the active internal register for the specified slave (0-3).
 920:mpu6050.c     ****  * Read/write operations for this slave will be done to whatever internal
 921:mpu6050.c     ****  * register address is stored in this MPU register.
 922:mpu6050.c     ****  *
 923:mpu6050.c     ****  * The MPU-6050 supports a total of five slaves, but Slave 4 has unique
 924:mpu6050.c     ****  * characteristics, and so it has its own functions.
 925:mpu6050.c     ****  *
 926:mpu6050.c     ****  * @param num Slave number (0-3)
 927:mpu6050.c     ****  * @return Current active register for specified slave
 928:mpu6050.c     ****  * @see MPU6050_RA_I2C_SLV0_REG
 929:mpu6050.c     ****  */
 930:mpu6050.c     **** uint8_t MPU6050_getSlaveRegister(uint8_t num) {
 2859              		.loc 1 930 0
 2860              		.cfi_startproc
 2861              		@ args = 0, pretend = 0, frame = 8
 2862              		@ frame_needed = 1, uses_anonymous_args = 0
 2863 0000 80B5     		push	{r7, lr}
 2864              		.cfi_def_cfa_offset 8
 2865              		.cfi_offset 7, -8
 2866              		.cfi_offset 14, -4
 2867 0002 82B0     		sub	sp, sp, #8
 2868              		.cfi_def_cfa_offset 16
 2869 0004 00AF     		add	r7, sp, #0
 2870              		.cfi_def_cfa_register 7
 2871 0006 0346     		mov	r3, r0
 2872 0008 FB71     		strb	r3, [r7, #7]
 931:mpu6050.c     ****     if (num > 3) return 0;
 2873              		.loc 1 931 0
 2874 000a FB79     		ldrb	r3, [r7, #7]	@ zero_extendqisi2
 2875 000c 032B     		cmp	r3, #3
 2876 000e 01D9     		bls	.L224
 2877              		.loc 1 931 0 is_stmt 0 discriminator 1
 2878 0010 0023     		movs	r3, #0
 2879 0012 0FE0     		b	.L225
 2880              	.L224:
 932:mpu6050.c     ****     I2CReadByte(devAddr, MPU6050_RA_I2C_SLV0_REG + num*3, buffer);
 2881              		.loc 1 932 0 is_stmt 1
 2882 0014 094B     		ldr	r3, .L226
 2883 0016 1A78     		ldrb	r2, [r3]	@ zero_extendqisi2
 2884 0018 FB79     		ldrb	r3, [r7, #7]
 2885 001a 1946     		mov	r1, r3
 2886 001c 4900     		lsls	r1, r1, #1
 2887 001e 0B44     		add	r3, r3, r1
ARM GAS  C:\Users\jwgutter\AppData\Local\Temp\ccGcOqDB.s 			page 68


 2888 0020 DBB2     		uxtb	r3, r3
 2889 0022 2633     		adds	r3, r3, #38
 2890 0024 DBB2     		uxtb	r3, r3
 2891 0026 1046     		mov	r0, r2
 2892 0028 1946     		mov	r1, r3
 2893 002a 054A     		ldr	r2, .L226+4
 2894 002c FFF7FEFF 		bl	I2CReadByte
 933:mpu6050.c     ****     return buffer[0];
 2895              		.loc 1 933 0
 2896 0030 034B     		ldr	r3, .L226+4
 2897 0032 1B78     		ldrb	r3, [r3]	@ zero_extendqisi2
 2898              	.L225:
 934:mpu6050.c     **** }
 2899              		.loc 1 934 0
 2900 0034 1846     		mov	r0, r3
 2901 0036 0837     		adds	r7, r7, #8
 2902              		.cfi_def_cfa_offset 8
 2903 0038 BD46     		mov	sp, r7
 2904              		.cfi_def_cfa_register 13
 2905              		@ sp needed
 2906 003a 80BD     		pop	{r7, pc}
 2907              	.L227:
 2908              		.align	2
 2909              	.L226:
 2910 003c 00000000 		.word	devAddr
 2911 0040 00000000 		.word	buffer
 2912              		.cfi_endproc
 2913              	.LFE64:
 2914              		.size	MPU6050_getSlaveRegister, .-MPU6050_getSlaveRegister
 2915              		.section	.text.MPU6050_setSlaveRegister,"ax",%progbits
 2916              		.align	2
 2917              		.global	MPU6050_setSlaveRegister
 2918              		.thumb
 2919              		.thumb_func
 2920              		.type	MPU6050_setSlaveRegister, %function
 2921              	MPU6050_setSlaveRegister:
 2922              	.LFB65:
 935:mpu6050.c     **** /** Set the active internal register for the specified slave (0-3).
 936:mpu6050.c     ****  * @param num Slave number (0-3)
 937:mpu6050.c     ****  * @param reg New active register for specified slave
 938:mpu6050.c     ****  * @see getSlaveRegister()
 939:mpu6050.c     ****  * @see MPU6050_RA_I2C_SLV0_REG
 940:mpu6050.c     ****  */
 941:mpu6050.c     **** void MPU6050_setSlaveRegister(uint8_t num, uint8_t reg) {
 2923              		.loc 1 941 0
 2924              		.cfi_startproc
 2925              		@ args = 0, pretend = 0, frame = 8
 2926              		@ frame_needed = 1, uses_anonymous_args = 0
 2927 0000 80B5     		push	{r7, lr}
 2928              		.cfi_def_cfa_offset 8
 2929              		.cfi_offset 7, -8
 2930              		.cfi_offset 14, -4
 2931 0002 82B0     		sub	sp, sp, #8
 2932              		.cfi_def_cfa_offset 16
 2933 0004 00AF     		add	r7, sp, #0
 2934              		.cfi_def_cfa_register 7
 2935 0006 0346     		mov	r3, r0
ARM GAS  C:\Users\jwgutter\AppData\Local\Temp\ccGcOqDB.s 			page 69


 2936 0008 0A46     		mov	r2, r1
 2937 000a FB71     		strb	r3, [r7, #7]
 2938 000c 1346     		mov	r3, r2
 2939 000e BB71     		strb	r3, [r7, #6]
 942:mpu6050.c     ****     if (num > 3) return;
 2940              		.loc 1 942 0
 2941 0010 FB79     		ldrb	r3, [r7, #7]	@ zero_extendqisi2
 2942 0012 032B     		cmp	r3, #3
 2943 0014 00D9     		bls	.L229
 2944 0016 0EE0     		b	.L228
 2945              	.L229:
 943:mpu6050.c     ****     I2CWriteByte(devAddr, MPU6050_RA_I2C_SLV0_REG + num*3, reg);
 2946              		.loc 1 943 0
 2947 0018 084B     		ldr	r3, .L231
 2948 001a 1978     		ldrb	r1, [r3]	@ zero_extendqisi2
 2949 001c FB79     		ldrb	r3, [r7, #7]
 2950 001e 1A46     		mov	r2, r3
 2951 0020 5200     		lsls	r2, r2, #1
 2952 0022 1344     		add	r3, r3, r2
 2953 0024 DBB2     		uxtb	r3, r3
 2954 0026 2633     		adds	r3, r3, #38
 2955 0028 DAB2     		uxtb	r2, r3
 2956 002a BB79     		ldrb	r3, [r7, #6]	@ zero_extendqisi2
 2957 002c 0846     		mov	r0, r1
 2958 002e 1146     		mov	r1, r2
 2959 0030 1A46     		mov	r2, r3
 2960 0032 FFF7FEFF 		bl	I2CWriteByte
 2961              	.L228:
 944:mpu6050.c     **** }
 2962              		.loc 1 944 0
 2963 0036 0837     		adds	r7, r7, #8
 2964              		.cfi_def_cfa_offset 8
 2965 0038 BD46     		mov	sp, r7
 2966              		.cfi_def_cfa_register 13
 2967              		@ sp needed
 2968 003a 80BD     		pop	{r7, pc}
 2969              	.L232:
 2970              		.align	2
 2971              	.L231:
 2972 003c 00000000 		.word	devAddr
 2973              		.cfi_endproc
 2974              	.LFE65:
 2975              		.size	MPU6050_setSlaveRegister, .-MPU6050_setSlaveRegister
 2976              		.section	.text.MPU6050_getSlaveEnabled,"ax",%progbits
 2977              		.align	2
 2978              		.global	MPU6050_getSlaveEnabled
 2979              		.thumb
 2980              		.thumb_func
 2981              		.type	MPU6050_getSlaveEnabled, %function
 2982              	MPU6050_getSlaveEnabled:
 2983              	.LFB66:
 945:mpu6050.c     **** /** Get the enabled value for the specified slave (0-3).
 946:mpu6050.c     ****  * When set to 1, this bit enables Slave 0 for data transfer operations. When
 947:mpu6050.c     ****  * cleared to 0, this bit disables Slave 0 from data transfer operations.
 948:mpu6050.c     ****  * @param num Slave number (0-3)
 949:mpu6050.c     ****  * @return Current enabled value for specified slave
 950:mpu6050.c     ****  * @see MPU6050_RA_I2C_SLV0_CTRL
ARM GAS  C:\Users\jwgutter\AppData\Local\Temp\ccGcOqDB.s 			page 70


 951:mpu6050.c     ****  */
 952:mpu6050.c     **** bool MPU6050_getSlaveEnabled(uint8_t num) {
 2984              		.loc 1 952 0
 2985              		.cfi_startproc
 2986              		@ args = 0, pretend = 0, frame = 8
 2987              		@ frame_needed = 1, uses_anonymous_args = 0
 2988 0000 80B5     		push	{r7, lr}
 2989              		.cfi_def_cfa_offset 8
 2990              		.cfi_offset 7, -8
 2991              		.cfi_offset 14, -4
 2992 0002 82B0     		sub	sp, sp, #8
 2993              		.cfi_def_cfa_offset 16
 2994 0004 00AF     		add	r7, sp, #0
 2995              		.cfi_def_cfa_register 7
 2996 0006 0346     		mov	r3, r0
 2997 0008 FB71     		strb	r3, [r7, #7]
 953:mpu6050.c     ****     if (num > 3) return 0;
 2998              		.loc 1 953 0
 2999 000a FB79     		ldrb	r3, [r7, #7]	@ zero_extendqisi2
 3000 000c 032B     		cmp	r3, #3
 3001 000e 01D9     		bls	.L234
 3002              		.loc 1 953 0 is_stmt 0 discriminator 1
 3003 0010 0023     		movs	r3, #0
 3004 0012 15E0     		b	.L235
 3005              	.L234:
 954:mpu6050.c     ****     I2CReadBit(devAddr, MPU6050_RA_I2C_SLV0_CTRL + num*3, I2C_MPU6050_I2C_SLV_EN_BIT, buffer);
 3006              		.loc 1 954 0 is_stmt 1
 3007 0014 0C4B     		ldr	r3, .L236
 3008 0016 1A78     		ldrb	r2, [r3]	@ zero_extendqisi2
 3009 0018 FB79     		ldrb	r3, [r7, #7]
 3010 001a 1946     		mov	r1, r3
 3011 001c 4900     		lsls	r1, r1, #1
 3012 001e 0B44     		add	r3, r3, r1
 3013 0020 DBB2     		uxtb	r3, r3
 3014 0022 2733     		adds	r3, r3, #39
 3015 0024 DBB2     		uxtb	r3, r3
 3016 0026 1046     		mov	r0, r2
 3017 0028 1946     		mov	r1, r3
 3018 002a 0722     		movs	r2, #7
 3019 002c 074B     		ldr	r3, .L236+4
 3020 002e FFF7FEFF 		bl	I2CReadBit
 955:mpu6050.c     ****     return buffer[0];
 3021              		.loc 1 955 0
 3022 0032 064B     		ldr	r3, .L236+4
 3023 0034 1B78     		ldrb	r3, [r3]	@ zero_extendqisi2
 3024 0036 002B     		cmp	r3, #0
 3025 0038 14BF     		ite	ne
 3026 003a 0123     		movne	r3, #1
 3027 003c 0023     		moveq	r3, #0
 3028 003e DBB2     		uxtb	r3, r3
 3029              	.L235:
 956:mpu6050.c     **** }
 3030              		.loc 1 956 0
 3031 0040 1846     		mov	r0, r3
 3032 0042 0837     		adds	r7, r7, #8
 3033              		.cfi_def_cfa_offset 8
 3034 0044 BD46     		mov	sp, r7
ARM GAS  C:\Users\jwgutter\AppData\Local\Temp\ccGcOqDB.s 			page 71


 3035              		.cfi_def_cfa_register 13
 3036              		@ sp needed
 3037 0046 80BD     		pop	{r7, pc}
 3038              	.L237:
 3039              		.align	2
 3040              	.L236:
 3041 0048 00000000 		.word	devAddr
 3042 004c 00000000 		.word	buffer
 3043              		.cfi_endproc
 3044              	.LFE66:
 3045              		.size	MPU6050_getSlaveEnabled, .-MPU6050_getSlaveEnabled
 3046              		.section	.text.MPU6050_setSlaveEnabled,"ax",%progbits
 3047              		.align	2
 3048              		.global	MPU6050_setSlaveEnabled
 3049              		.thumb
 3050              		.thumb_func
 3051              		.type	MPU6050_setSlaveEnabled, %function
 3052              	MPU6050_setSlaveEnabled:
 3053              	.LFB67:
 957:mpu6050.c     **** /** Set the enabled value for the specified slave (0-3).
 958:mpu6050.c     ****  * @param num Slave number (0-3)
 959:mpu6050.c     ****  * @param enabled New enabled value for specified slave
 960:mpu6050.c     ****  * @see getSlaveEnabled()
 961:mpu6050.c     ****  * @see MPU6050_RA_I2C_SLV0_CTRL
 962:mpu6050.c     ****  */
 963:mpu6050.c     **** void MPU6050_setSlaveEnabled(uint8_t num, bool enabled) {
 3054              		.loc 1 963 0
 3055              		.cfi_startproc
 3056              		@ args = 0, pretend = 0, frame = 8
 3057              		@ frame_needed = 1, uses_anonymous_args = 0
 3058 0000 80B5     		push	{r7, lr}
 3059              		.cfi_def_cfa_offset 8
 3060              		.cfi_offset 7, -8
 3061              		.cfi_offset 14, -4
 3062 0002 82B0     		sub	sp, sp, #8
 3063              		.cfi_def_cfa_offset 16
 3064 0004 00AF     		add	r7, sp, #0
 3065              		.cfi_def_cfa_register 7
 3066 0006 0346     		mov	r3, r0
 3067 0008 0A46     		mov	r2, r1
 3068 000a FB71     		strb	r3, [r7, #7]
 3069 000c 1346     		mov	r3, r2
 3070 000e BB71     		strb	r3, [r7, #6]
 964:mpu6050.c     ****     if (num > 3) return;
 3071              		.loc 1 964 0
 3072 0010 FB79     		ldrb	r3, [r7, #7]	@ zero_extendqisi2
 3073 0012 032B     		cmp	r3, #3
 3074 0014 00D9     		bls	.L239
 3075 0016 0EE0     		b	.L238
 3076              	.L239:
 965:mpu6050.c     ****     I2CWriteBit(devAddr, MPU6050_RA_I2C_SLV0_CTRL + num*3, I2C_MPU6050_I2C_SLV_EN_BIT, enabled);
 3077              		.loc 1 965 0
 3078 0018 084B     		ldr	r3, .L241
 3079 001a 1978     		ldrb	r1, [r3]	@ zero_extendqisi2
 3080 001c FB79     		ldrb	r3, [r7, #7]
 3081 001e 1A46     		mov	r2, r3
 3082 0020 5200     		lsls	r2, r2, #1
ARM GAS  C:\Users\jwgutter\AppData\Local\Temp\ccGcOqDB.s 			page 72


 3083 0022 1344     		add	r3, r3, r2
 3084 0024 DBB2     		uxtb	r3, r3
 3085 0026 2733     		adds	r3, r3, #39
 3086 0028 DAB2     		uxtb	r2, r3
 3087 002a BB79     		ldrb	r3, [r7, #6]	@ zero_extendqisi2
 3088 002c 0846     		mov	r0, r1
 3089 002e 1146     		mov	r1, r2
 3090 0030 0722     		movs	r2, #7
 3091 0032 FFF7FEFF 		bl	I2CWriteBit
 3092              	.L238:
 966:mpu6050.c     **** }
 3093              		.loc 1 966 0
 3094 0036 0837     		adds	r7, r7, #8
 3095              		.cfi_def_cfa_offset 8
 3096 0038 BD46     		mov	sp, r7
 3097              		.cfi_def_cfa_register 13
 3098              		@ sp needed
 3099 003a 80BD     		pop	{r7, pc}
 3100              	.L242:
 3101              		.align	2
 3102              	.L241:
 3103 003c 00000000 		.word	devAddr
 3104              		.cfi_endproc
 3105              	.LFE67:
 3106              		.size	MPU6050_setSlaveEnabled, .-MPU6050_setSlaveEnabled
 3107              		.section	.text.MPU6050_getSlaveWordByteSwap,"ax",%progbits
 3108              		.align	2
 3109              		.global	MPU6050_getSlaveWordByteSwap
 3110              		.thumb
 3111              		.thumb_func
 3112              		.type	MPU6050_getSlaveWordByteSwap, %function
 3113              	MPU6050_getSlaveWordByteSwap:
 3114              	.LFB68:
 967:mpu6050.c     **** /** Get word pair byte-swapping enabled for the specified slave (0-3).
 968:mpu6050.c     ****  * When set to 1, this bit enables byte swapping. When byte swapping is enabled,
 969:mpu6050.c     ****  * the high and low bytes of a word pair are swapped. Please refer to
 970:mpu6050.c     ****  * I2C_SLV0_GRP for the pairing convention of the word pairs. When cleared to 0,
 971:mpu6050.c     ****  * bytes transferred to and from Slave 0 will be written to EXT_SENS_DATA
 972:mpu6050.c     ****  * registers in the order they were transferred.
 973:mpu6050.c     ****  *
 974:mpu6050.c     ****  * @param num Slave number (0-3)
 975:mpu6050.c     ****  * @return Current word pair byte-swapping enabled value for specified slave
 976:mpu6050.c     ****  * @see MPU6050_RA_I2C_SLV0_CTRL
 977:mpu6050.c     ****  */
 978:mpu6050.c     **** bool MPU6050_getSlaveWordByteSwap(uint8_t num) {
 3115              		.loc 1 978 0
 3116              		.cfi_startproc
 3117              		@ args = 0, pretend = 0, frame = 8
 3118              		@ frame_needed = 1, uses_anonymous_args = 0
 3119 0000 80B5     		push	{r7, lr}
 3120              		.cfi_def_cfa_offset 8
 3121              		.cfi_offset 7, -8
 3122              		.cfi_offset 14, -4
 3123 0002 82B0     		sub	sp, sp, #8
 3124              		.cfi_def_cfa_offset 16
 3125 0004 00AF     		add	r7, sp, #0
 3126              		.cfi_def_cfa_register 7
ARM GAS  C:\Users\jwgutter\AppData\Local\Temp\ccGcOqDB.s 			page 73


 3127 0006 0346     		mov	r3, r0
 3128 0008 FB71     		strb	r3, [r7, #7]
 979:mpu6050.c     ****     if (num > 3) return 0;
 3129              		.loc 1 979 0
 3130 000a FB79     		ldrb	r3, [r7, #7]	@ zero_extendqisi2
 3131 000c 032B     		cmp	r3, #3
 3132 000e 01D9     		bls	.L244
 3133              		.loc 1 979 0 is_stmt 0 discriminator 1
 3134 0010 0023     		movs	r3, #0
 3135 0012 15E0     		b	.L245
 3136              	.L244:
 980:mpu6050.c     ****     I2CReadBit(devAddr, MPU6050_RA_I2C_SLV0_CTRL + num*3, I2C_MPU6050_I2C_SLV_BYTE_SW_BIT, buffer);
 3137              		.loc 1 980 0 is_stmt 1
 3138 0014 0C4B     		ldr	r3, .L246
 3139 0016 1A78     		ldrb	r2, [r3]	@ zero_extendqisi2
 3140 0018 FB79     		ldrb	r3, [r7, #7]
 3141 001a 1946     		mov	r1, r3
 3142 001c 4900     		lsls	r1, r1, #1
 3143 001e 0B44     		add	r3, r3, r1
 3144 0020 DBB2     		uxtb	r3, r3
 3145 0022 2733     		adds	r3, r3, #39
 3146 0024 DBB2     		uxtb	r3, r3
 3147 0026 1046     		mov	r0, r2
 3148 0028 1946     		mov	r1, r3
 3149 002a 0622     		movs	r2, #6
 3150 002c 074B     		ldr	r3, .L246+4
 3151 002e FFF7FEFF 		bl	I2CReadBit
 981:mpu6050.c     ****     return buffer[0];
 3152              		.loc 1 981 0
 3153 0032 064B     		ldr	r3, .L246+4
 3154 0034 1B78     		ldrb	r3, [r3]	@ zero_extendqisi2
 3155 0036 002B     		cmp	r3, #0
 3156 0038 14BF     		ite	ne
 3157 003a 0123     		movne	r3, #1
 3158 003c 0023     		moveq	r3, #0
 3159 003e DBB2     		uxtb	r3, r3
 3160              	.L245:
 982:mpu6050.c     **** }
 3161              		.loc 1 982 0
 3162 0040 1846     		mov	r0, r3
 3163 0042 0837     		adds	r7, r7, #8
 3164              		.cfi_def_cfa_offset 8
 3165 0044 BD46     		mov	sp, r7
 3166              		.cfi_def_cfa_register 13
 3167              		@ sp needed
 3168 0046 80BD     		pop	{r7, pc}
 3169              	.L247:
 3170              		.align	2
 3171              	.L246:
 3172 0048 00000000 		.word	devAddr
 3173 004c 00000000 		.word	buffer
 3174              		.cfi_endproc
 3175              	.LFE68:
 3176              		.size	MPU6050_getSlaveWordByteSwap, .-MPU6050_getSlaveWordByteSwap
 3177              		.section	.text.MPU6050_setSlaveWordByteSwap,"ax",%progbits
 3178              		.align	2
 3179              		.global	MPU6050_setSlaveWordByteSwap
ARM GAS  C:\Users\jwgutter\AppData\Local\Temp\ccGcOqDB.s 			page 74


 3180              		.thumb
 3181              		.thumb_func
 3182              		.type	MPU6050_setSlaveWordByteSwap, %function
 3183              	MPU6050_setSlaveWordByteSwap:
 3184              	.LFB69:
 983:mpu6050.c     **** /** Set word pair byte-swapping enabled for the specified slave (0-3).
 984:mpu6050.c     ****  * @param num Slave number (0-3)
 985:mpu6050.c     ****  * @param enabled New word pair byte-swapping enabled value for specified slave
 986:mpu6050.c     ****  * @see getSlaveWordByteSwap()
 987:mpu6050.c     ****  * @see MPU6050_RA_I2C_SLV0_CTRL
 988:mpu6050.c     ****  */
 989:mpu6050.c     **** void MPU6050_setSlaveWordByteSwap(uint8_t num, bool enabled) {
 3185              		.loc 1 989 0
 3186              		.cfi_startproc
 3187              		@ args = 0, pretend = 0, frame = 8
 3188              		@ frame_needed = 1, uses_anonymous_args = 0
 3189 0000 80B5     		push	{r7, lr}
 3190              		.cfi_def_cfa_offset 8
 3191              		.cfi_offset 7, -8
 3192              		.cfi_offset 14, -4
 3193 0002 82B0     		sub	sp, sp, #8
 3194              		.cfi_def_cfa_offset 16
 3195 0004 00AF     		add	r7, sp, #0
 3196              		.cfi_def_cfa_register 7
 3197 0006 0346     		mov	r3, r0
 3198 0008 0A46     		mov	r2, r1
 3199 000a FB71     		strb	r3, [r7, #7]
 3200 000c 1346     		mov	r3, r2
 3201 000e BB71     		strb	r3, [r7, #6]
 990:mpu6050.c     ****     if (num > 3) return;
 3202              		.loc 1 990 0
 3203 0010 FB79     		ldrb	r3, [r7, #7]	@ zero_extendqisi2
 3204 0012 032B     		cmp	r3, #3
 3205 0014 00D9     		bls	.L249
 3206 0016 0EE0     		b	.L248
 3207              	.L249:
 991:mpu6050.c     ****     I2CWriteBit(devAddr, MPU6050_RA_I2C_SLV0_CTRL + num*3, I2C_MPU6050_I2C_SLV_BYTE_SW_BIT, enabled
 3208              		.loc 1 991 0
 3209 0018 084B     		ldr	r3, .L251
 3210 001a 1978     		ldrb	r1, [r3]	@ zero_extendqisi2
 3211 001c FB79     		ldrb	r3, [r7, #7]
 3212 001e 1A46     		mov	r2, r3
 3213 0020 5200     		lsls	r2, r2, #1
 3214 0022 1344     		add	r3, r3, r2
 3215 0024 DBB2     		uxtb	r3, r3
 3216 0026 2733     		adds	r3, r3, #39
 3217 0028 DAB2     		uxtb	r2, r3
 3218 002a BB79     		ldrb	r3, [r7, #6]	@ zero_extendqisi2
 3219 002c 0846     		mov	r0, r1
 3220 002e 1146     		mov	r1, r2
 3221 0030 0622     		movs	r2, #6
 3222 0032 FFF7FEFF 		bl	I2CWriteBit
 3223              	.L248:
 992:mpu6050.c     **** }
 3224              		.loc 1 992 0
 3225 0036 0837     		adds	r7, r7, #8
 3226              		.cfi_def_cfa_offset 8
ARM GAS  C:\Users\jwgutter\AppData\Local\Temp\ccGcOqDB.s 			page 75


 3227 0038 BD46     		mov	sp, r7
 3228              		.cfi_def_cfa_register 13
 3229              		@ sp needed
 3230 003a 80BD     		pop	{r7, pc}
 3231              	.L252:
 3232              		.align	2
 3233              	.L251:
 3234 003c 00000000 		.word	devAddr
 3235              		.cfi_endproc
 3236              	.LFE69:
 3237              		.size	MPU6050_setSlaveWordByteSwap, .-MPU6050_setSlaveWordByteSwap
 3238              		.section	.text.MPU6050_getSlaveWriteMode,"ax",%progbits
 3239              		.align	2
 3240              		.global	MPU6050_getSlaveWriteMode
 3241              		.thumb
 3242              		.thumb_func
 3243              		.type	MPU6050_getSlaveWriteMode, %function
 3244              	MPU6050_getSlaveWriteMode:
 3245              	.LFB70:
 993:mpu6050.c     **** /** Get write mode for the specified slave (0-3).
 994:mpu6050.c     ****  * When set to 1, the transaction will read or write data only. When cleared to
 995:mpu6050.c     ****  * 0, the transaction will write a register address prior to reading or writing
 996:mpu6050.c     ****  * data. This should equal 0 when specifying the register address within the
 997:mpu6050.c     ****  * Slave device to/from which the ensuing data transaction will take place.
 998:mpu6050.c     ****  *
 999:mpu6050.c     ****  * @param num Slave number (0-3)
1000:mpu6050.c     ****  * @return Current write mode for specified slave (0 = register address + data, 1 = data only)
1001:mpu6050.c     ****  * @see MPU6050_RA_I2C_SLV0_CTRL
1002:mpu6050.c     ****  */
1003:mpu6050.c     **** bool MPU6050_getSlaveWriteMode(uint8_t num) {
 3246              		.loc 1 1003 0
 3247              		.cfi_startproc
 3248              		@ args = 0, pretend = 0, frame = 8
 3249              		@ frame_needed = 1, uses_anonymous_args = 0
 3250 0000 80B5     		push	{r7, lr}
 3251              		.cfi_def_cfa_offset 8
 3252              		.cfi_offset 7, -8
 3253              		.cfi_offset 14, -4
 3254 0002 82B0     		sub	sp, sp, #8
 3255              		.cfi_def_cfa_offset 16
 3256 0004 00AF     		add	r7, sp, #0
 3257              		.cfi_def_cfa_register 7
 3258 0006 0346     		mov	r3, r0
 3259 0008 FB71     		strb	r3, [r7, #7]
1004:mpu6050.c     ****     if (num > 3) return 0;
 3260              		.loc 1 1004 0
 3261 000a FB79     		ldrb	r3, [r7, #7]	@ zero_extendqisi2
 3262 000c 032B     		cmp	r3, #3
 3263 000e 01D9     		bls	.L254
 3264              		.loc 1 1004 0 is_stmt 0 discriminator 1
 3265 0010 0023     		movs	r3, #0
 3266 0012 15E0     		b	.L255
 3267              	.L254:
1005:mpu6050.c     ****     I2CReadBit(devAddr, MPU6050_RA_I2C_SLV0_CTRL + num*3, I2C_MPU6050_I2C_SLV_REG_DIS_BIT, buffer);
 3268              		.loc 1 1005 0 is_stmt 1
 3269 0014 0C4B     		ldr	r3, .L256
 3270 0016 1A78     		ldrb	r2, [r3]	@ zero_extendqisi2
ARM GAS  C:\Users\jwgutter\AppData\Local\Temp\ccGcOqDB.s 			page 76


 3271 0018 FB79     		ldrb	r3, [r7, #7]
 3272 001a 1946     		mov	r1, r3
 3273 001c 4900     		lsls	r1, r1, #1
 3274 001e 0B44     		add	r3, r3, r1
 3275 0020 DBB2     		uxtb	r3, r3
 3276 0022 2733     		adds	r3, r3, #39
 3277 0024 DBB2     		uxtb	r3, r3
 3278 0026 1046     		mov	r0, r2
 3279 0028 1946     		mov	r1, r3
 3280 002a 0522     		movs	r2, #5
 3281 002c 074B     		ldr	r3, .L256+4
 3282 002e FFF7FEFF 		bl	I2CReadBit
1006:mpu6050.c     ****     return buffer[0];
 3283              		.loc 1 1006 0
 3284 0032 064B     		ldr	r3, .L256+4
 3285 0034 1B78     		ldrb	r3, [r3]	@ zero_extendqisi2
 3286 0036 002B     		cmp	r3, #0
 3287 0038 14BF     		ite	ne
 3288 003a 0123     		movne	r3, #1
 3289 003c 0023     		moveq	r3, #0
 3290 003e DBB2     		uxtb	r3, r3
 3291              	.L255:
1007:mpu6050.c     **** }
 3292              		.loc 1 1007 0
 3293 0040 1846     		mov	r0, r3
 3294 0042 0837     		adds	r7, r7, #8
 3295              		.cfi_def_cfa_offset 8
 3296 0044 BD46     		mov	sp, r7
 3297              		.cfi_def_cfa_register 13
 3298              		@ sp needed
 3299 0046 80BD     		pop	{r7, pc}
 3300              	.L257:
 3301              		.align	2
 3302              	.L256:
 3303 0048 00000000 		.word	devAddr
 3304 004c 00000000 		.word	buffer
 3305              		.cfi_endproc
 3306              	.LFE70:
 3307              		.size	MPU6050_getSlaveWriteMode, .-MPU6050_getSlaveWriteMode
 3308              		.section	.text.MPU6050_setSlaveWriteMode,"ax",%progbits
 3309              		.align	2
 3310              		.global	MPU6050_setSlaveWriteMode
 3311              		.thumb
 3312              		.thumb_func
 3313              		.type	MPU6050_setSlaveWriteMode, %function
 3314              	MPU6050_setSlaveWriteMode:
 3315              	.LFB71:
1008:mpu6050.c     **** /** Set write mode for the specified slave (0-3).
1009:mpu6050.c     ****  * @param num Slave number (0-3)
1010:mpu6050.c     ****  * @param mode New write mode for specified slave (0 = register address + data, 1 = data only)
1011:mpu6050.c     ****  * @see getSlaveWriteMode()
1012:mpu6050.c     ****  * @see MPU6050_RA_I2C_SLV0_CTRL
1013:mpu6050.c     ****  */
1014:mpu6050.c     **** void MPU6050_setSlaveWriteMode(uint8_t num, bool mode) {
 3316              		.loc 1 1014 0
 3317              		.cfi_startproc
 3318              		@ args = 0, pretend = 0, frame = 8
ARM GAS  C:\Users\jwgutter\AppData\Local\Temp\ccGcOqDB.s 			page 77


 3319              		@ frame_needed = 1, uses_anonymous_args = 0
 3320 0000 80B5     		push	{r7, lr}
 3321              		.cfi_def_cfa_offset 8
 3322              		.cfi_offset 7, -8
 3323              		.cfi_offset 14, -4
 3324 0002 82B0     		sub	sp, sp, #8
 3325              		.cfi_def_cfa_offset 16
 3326 0004 00AF     		add	r7, sp, #0
 3327              		.cfi_def_cfa_register 7
 3328 0006 0346     		mov	r3, r0
 3329 0008 0A46     		mov	r2, r1
 3330 000a FB71     		strb	r3, [r7, #7]
 3331 000c 1346     		mov	r3, r2
 3332 000e BB71     		strb	r3, [r7, #6]
1015:mpu6050.c     ****     if (num > 3) return;
 3333              		.loc 1 1015 0
 3334 0010 FB79     		ldrb	r3, [r7, #7]	@ zero_extendqisi2
 3335 0012 032B     		cmp	r3, #3
 3336 0014 00D9     		bls	.L259
 3337 0016 0EE0     		b	.L258
 3338              	.L259:
1016:mpu6050.c     ****     I2CWriteBit(devAddr, MPU6050_RA_I2C_SLV0_CTRL + num*3, I2C_MPU6050_I2C_SLV_REG_DIS_BIT, mode);
 3339              		.loc 1 1016 0
 3340 0018 084B     		ldr	r3, .L261
 3341 001a 1978     		ldrb	r1, [r3]	@ zero_extendqisi2
 3342 001c FB79     		ldrb	r3, [r7, #7]
 3343 001e 1A46     		mov	r2, r3
 3344 0020 5200     		lsls	r2, r2, #1
 3345 0022 1344     		add	r3, r3, r2
 3346 0024 DBB2     		uxtb	r3, r3
 3347 0026 2733     		adds	r3, r3, #39
 3348 0028 DAB2     		uxtb	r2, r3
 3349 002a BB79     		ldrb	r3, [r7, #6]	@ zero_extendqisi2
 3350 002c 0846     		mov	r0, r1
 3351 002e 1146     		mov	r1, r2
 3352 0030 0522     		movs	r2, #5
 3353 0032 FFF7FEFF 		bl	I2CWriteBit
 3354              	.L258:
1017:mpu6050.c     **** }
 3355              		.loc 1 1017 0
 3356 0036 0837     		adds	r7, r7, #8
 3357              		.cfi_def_cfa_offset 8
 3358 0038 BD46     		mov	sp, r7
 3359              		.cfi_def_cfa_register 13
 3360              		@ sp needed
 3361 003a 80BD     		pop	{r7, pc}
 3362              	.L262:
 3363              		.align	2
 3364              	.L261:
 3365 003c 00000000 		.word	devAddr
 3366              		.cfi_endproc
 3367              	.LFE71:
 3368              		.size	MPU6050_setSlaveWriteMode, .-MPU6050_setSlaveWriteMode
 3369              		.section	.text.MPU6050_getSlaveWordGroupOffset,"ax",%progbits
 3370              		.align	2
 3371              		.global	MPU6050_getSlaveWordGroupOffset
 3372              		.thumb
ARM GAS  C:\Users\jwgutter\AppData\Local\Temp\ccGcOqDB.s 			page 78


 3373              		.thumb_func
 3374              		.type	MPU6050_getSlaveWordGroupOffset, %function
 3375              	MPU6050_getSlaveWordGroupOffset:
 3376              	.LFB72:
1018:mpu6050.c     **** /** Get word pair grouping order offset for the specified slave (0-3).
1019:mpu6050.c     ****  * This sets specifies the grouping order of word pairs received from registers.
1020:mpu6050.c     ****  * When cleared to 0, bytes from register addresses 0 and 1, 2 and 3, etc (even,
1021:mpu6050.c     ****  * then odd register addresses) are paired to form a word. When set to 1, bytes
1022:mpu6050.c     ****  * from register addresses are paired 1 and 2, 3 and 4, etc. (odd, then even
1023:mpu6050.c     ****  * register addresses) are paired to form a word.
1024:mpu6050.c     ****  *
1025:mpu6050.c     ****  * @param num Slave number (0-3)
1026:mpu6050.c     ****  * @return Current word pair grouping order offset for specified slave
1027:mpu6050.c     ****  * @see MPU6050_RA_I2C_SLV0_CTRL
1028:mpu6050.c     ****  */
1029:mpu6050.c     **** bool MPU6050_getSlaveWordGroupOffset(uint8_t num) {
 3377              		.loc 1 1029 0
 3378              		.cfi_startproc
 3379              		@ args = 0, pretend = 0, frame = 8
 3380              		@ frame_needed = 1, uses_anonymous_args = 0
 3381 0000 80B5     		push	{r7, lr}
 3382              		.cfi_def_cfa_offset 8
 3383              		.cfi_offset 7, -8
 3384              		.cfi_offset 14, -4
 3385 0002 82B0     		sub	sp, sp, #8
 3386              		.cfi_def_cfa_offset 16
 3387 0004 00AF     		add	r7, sp, #0
 3388              		.cfi_def_cfa_register 7
 3389 0006 0346     		mov	r3, r0
 3390 0008 FB71     		strb	r3, [r7, #7]
1030:mpu6050.c     ****     if (num > 3) return 0;
 3391              		.loc 1 1030 0
 3392 000a FB79     		ldrb	r3, [r7, #7]	@ zero_extendqisi2
 3393 000c 032B     		cmp	r3, #3
 3394 000e 01D9     		bls	.L264
 3395              		.loc 1 1030 0 is_stmt 0 discriminator 1
 3396 0010 0023     		movs	r3, #0
 3397 0012 15E0     		b	.L265
 3398              	.L264:
1031:mpu6050.c     ****     I2CReadBit(devAddr, MPU6050_RA_I2C_SLV0_CTRL + num*3, I2C_MPU6050_I2C_SLV_GRP_BIT, buffer);
 3399              		.loc 1 1031 0 is_stmt 1
 3400 0014 0C4B     		ldr	r3, .L266
 3401 0016 1A78     		ldrb	r2, [r3]	@ zero_extendqisi2
 3402 0018 FB79     		ldrb	r3, [r7, #7]
 3403 001a 1946     		mov	r1, r3
 3404 001c 4900     		lsls	r1, r1, #1
 3405 001e 0B44     		add	r3, r3, r1
 3406 0020 DBB2     		uxtb	r3, r3
 3407 0022 2733     		adds	r3, r3, #39
 3408 0024 DBB2     		uxtb	r3, r3
 3409 0026 1046     		mov	r0, r2
 3410 0028 1946     		mov	r1, r3
 3411 002a 0422     		movs	r2, #4
 3412 002c 074B     		ldr	r3, .L266+4
 3413 002e FFF7FEFF 		bl	I2CReadBit
1032:mpu6050.c     ****     return buffer[0];
 3414              		.loc 1 1032 0
ARM GAS  C:\Users\jwgutter\AppData\Local\Temp\ccGcOqDB.s 			page 79


 3415 0032 064B     		ldr	r3, .L266+4
 3416 0034 1B78     		ldrb	r3, [r3]	@ zero_extendqisi2
 3417 0036 002B     		cmp	r3, #0
 3418 0038 14BF     		ite	ne
 3419 003a 0123     		movne	r3, #1
 3420 003c 0023     		moveq	r3, #0
 3421 003e DBB2     		uxtb	r3, r3
 3422              	.L265:
1033:mpu6050.c     **** }
 3423              		.loc 1 1033 0
 3424 0040 1846     		mov	r0, r3
 3425 0042 0837     		adds	r7, r7, #8
 3426              		.cfi_def_cfa_offset 8
 3427 0044 BD46     		mov	sp, r7
 3428              		.cfi_def_cfa_register 13
 3429              		@ sp needed
 3430 0046 80BD     		pop	{r7, pc}
 3431              	.L267:
 3432              		.align	2
 3433              	.L266:
 3434 0048 00000000 		.word	devAddr
 3435 004c 00000000 		.word	buffer
 3436              		.cfi_endproc
 3437              	.LFE72:
 3438              		.size	MPU6050_getSlaveWordGroupOffset, .-MPU6050_getSlaveWordGroupOffset
 3439              		.section	.text.MPU6050_setSlaveWordGroupOffset,"ax",%progbits
 3440              		.align	2
 3441              		.global	MPU6050_setSlaveWordGroupOffset
 3442              		.thumb
 3443              		.thumb_func
 3444              		.type	MPU6050_setSlaveWordGroupOffset, %function
 3445              	MPU6050_setSlaveWordGroupOffset:
 3446              	.LFB73:
1034:mpu6050.c     **** /** Set word pair grouping order offset for the specified slave (0-3).
1035:mpu6050.c     ****  * @param num Slave number (0-3)
1036:mpu6050.c     ****  * @param enabled New word pair grouping order offset for specified slave
1037:mpu6050.c     ****  * @see getSlaveWordGroupOffset()
1038:mpu6050.c     ****  * @see MPU6050_RA_I2C_SLV0_CTRL
1039:mpu6050.c     ****  */
1040:mpu6050.c     **** void MPU6050_setSlaveWordGroupOffset(uint8_t num, bool enabled) {
 3447              		.loc 1 1040 0
 3448              		.cfi_startproc
 3449              		@ args = 0, pretend = 0, frame = 8
 3450              		@ frame_needed = 1, uses_anonymous_args = 0
 3451 0000 80B5     		push	{r7, lr}
 3452              		.cfi_def_cfa_offset 8
 3453              		.cfi_offset 7, -8
 3454              		.cfi_offset 14, -4
 3455 0002 82B0     		sub	sp, sp, #8
 3456              		.cfi_def_cfa_offset 16
 3457 0004 00AF     		add	r7, sp, #0
 3458              		.cfi_def_cfa_register 7
 3459 0006 0346     		mov	r3, r0
 3460 0008 0A46     		mov	r2, r1
 3461 000a FB71     		strb	r3, [r7, #7]
 3462 000c 1346     		mov	r3, r2
 3463 000e BB71     		strb	r3, [r7, #6]
ARM GAS  C:\Users\jwgutter\AppData\Local\Temp\ccGcOqDB.s 			page 80


1041:mpu6050.c     ****     if (num > 3) return;
 3464              		.loc 1 1041 0
 3465 0010 FB79     		ldrb	r3, [r7, #7]	@ zero_extendqisi2
 3466 0012 032B     		cmp	r3, #3
 3467 0014 00D9     		bls	.L269
 3468 0016 0EE0     		b	.L268
 3469              	.L269:
1042:mpu6050.c     ****     I2CWriteBit(devAddr, MPU6050_RA_I2C_SLV0_CTRL + num*3, I2C_MPU6050_I2C_SLV_GRP_BIT, enabled);
 3470              		.loc 1 1042 0
 3471 0018 084B     		ldr	r3, .L271
 3472 001a 1978     		ldrb	r1, [r3]	@ zero_extendqisi2
 3473 001c FB79     		ldrb	r3, [r7, #7]
 3474 001e 1A46     		mov	r2, r3
 3475 0020 5200     		lsls	r2, r2, #1
 3476 0022 1344     		add	r3, r3, r2
 3477 0024 DBB2     		uxtb	r3, r3
 3478 0026 2733     		adds	r3, r3, #39
 3479 0028 DAB2     		uxtb	r2, r3
 3480 002a BB79     		ldrb	r3, [r7, #6]	@ zero_extendqisi2
 3481 002c 0846     		mov	r0, r1
 3482 002e 1146     		mov	r1, r2
 3483 0030 0422     		movs	r2, #4
 3484 0032 FFF7FEFF 		bl	I2CWriteBit
 3485              	.L268:
1043:mpu6050.c     **** }
 3486              		.loc 1 1043 0
 3487 0036 0837     		adds	r7, r7, #8
 3488              		.cfi_def_cfa_offset 8
 3489 0038 BD46     		mov	sp, r7
 3490              		.cfi_def_cfa_register 13
 3491              		@ sp needed
 3492 003a 80BD     		pop	{r7, pc}
 3493              	.L272:
 3494              		.align	2
 3495              	.L271:
 3496 003c 00000000 		.word	devAddr
 3497              		.cfi_endproc
 3498              	.LFE73:
 3499              		.size	MPU6050_setSlaveWordGroupOffset, .-MPU6050_setSlaveWordGroupOffset
 3500              		.section	.text.MPU6050_getSlaveDataLength,"ax",%progbits
 3501              		.align	2
 3502              		.global	MPU6050_getSlaveDataLength
 3503              		.thumb
 3504              		.thumb_func
 3505              		.type	MPU6050_getSlaveDataLength, %function
 3506              	MPU6050_getSlaveDataLength:
 3507              	.LFB74:
1044:mpu6050.c     **** /** Get number of bytes to read for the specified slave (0-3).
1045:mpu6050.c     ****  * Specifies the number of bytes transferred to and from Slave 0. Clearing this
1046:mpu6050.c     ****  * bit to 0 is equivalent to disabling the register by writing 0 to I2C_SLV0_EN.
1047:mpu6050.c     ****  * @param num Slave number (0-3)
1048:mpu6050.c     ****  * @return Number of bytes to read for specified slave
1049:mpu6050.c     ****  * @see MPU6050_RA_I2C_SLV0_CTRL
1050:mpu6050.c     ****  */
1051:mpu6050.c     **** uint8_t MPU6050_getSlaveDataLength(uint8_t num) {
 3508              		.loc 1 1051 0
 3509              		.cfi_startproc
ARM GAS  C:\Users\jwgutter\AppData\Local\Temp\ccGcOqDB.s 			page 81


 3510              		@ args = 0, pretend = 0, frame = 8
 3511              		@ frame_needed = 1, uses_anonymous_args = 0
 3512 0000 80B5     		push	{r7, lr}
 3513              		.cfi_def_cfa_offset 8
 3514              		.cfi_offset 7, -8
 3515              		.cfi_offset 14, -4
 3516 0002 84B0     		sub	sp, sp, #16
 3517              		.cfi_def_cfa_offset 24
 3518 0004 02AF     		add	r7, sp, #8
 3519              		.cfi_def_cfa 7, 16
 3520 0006 0346     		mov	r3, r0
 3521 0008 FB71     		strb	r3, [r7, #7]
1052:mpu6050.c     ****     if (num > 3) return 0;
 3522              		.loc 1 1052 0
 3523 000a FB79     		ldrb	r3, [r7, #7]	@ zero_extendqisi2
 3524 000c 032B     		cmp	r3, #3
 3525 000e 01D9     		bls	.L274
 3526              		.loc 1 1052 0 is_stmt 0 discriminator 1
 3527 0010 0023     		movs	r3, #0
 3528 0012 12E0     		b	.L275
 3529              	.L274:
1053:mpu6050.c     ****     I2CReadBits(devAddr, MPU6050_RA_I2C_SLV0_CTRL + num*3, I2C_MPU6050_I2C_SLV_LEN_BIT, I2C_MPU6050
 3530              		.loc 1 1053 0 is_stmt 1
 3531 0014 0B4B     		ldr	r3, .L276
 3532 0016 1978     		ldrb	r1, [r3]	@ zero_extendqisi2
 3533 0018 FB79     		ldrb	r3, [r7, #7]
 3534 001a 1A46     		mov	r2, r3
 3535 001c 5200     		lsls	r2, r2, #1
 3536 001e 1344     		add	r3, r3, r2
 3537 0020 DBB2     		uxtb	r3, r3
 3538 0022 2733     		adds	r3, r3, #39
 3539 0024 DAB2     		uxtb	r2, r3
 3540 0026 084B     		ldr	r3, .L276+4
 3541 0028 0093     		str	r3, [sp]
 3542 002a 0846     		mov	r0, r1
 3543 002c 1146     		mov	r1, r2
 3544 002e 0322     		movs	r2, #3
 3545 0030 0423     		movs	r3, #4
 3546 0032 FFF7FEFF 		bl	I2CReadBits
1054:mpu6050.c     ****     return buffer[0];
 3547              		.loc 1 1054 0
 3548 0036 044B     		ldr	r3, .L276+4
 3549 0038 1B78     		ldrb	r3, [r3]	@ zero_extendqisi2
 3550              	.L275:
1055:mpu6050.c     **** }
 3551              		.loc 1 1055 0
 3552 003a 1846     		mov	r0, r3
 3553 003c 0837     		adds	r7, r7, #8
 3554              		.cfi_def_cfa_offset 8
 3555 003e BD46     		mov	sp, r7
 3556              		.cfi_def_cfa_register 13
 3557              		@ sp needed
 3558 0040 80BD     		pop	{r7, pc}
 3559              	.L277:
 3560 0042 00BF     		.align	2
 3561              	.L276:
 3562 0044 00000000 		.word	devAddr
ARM GAS  C:\Users\jwgutter\AppData\Local\Temp\ccGcOqDB.s 			page 82


 3563 0048 00000000 		.word	buffer
 3564              		.cfi_endproc
 3565              	.LFE74:
 3566              		.size	MPU6050_getSlaveDataLength, .-MPU6050_getSlaveDataLength
 3567              		.section	.text.MPU6050_setSlaveDataLength,"ax",%progbits
 3568              		.align	2
 3569              		.global	MPU6050_setSlaveDataLength
 3570              		.thumb
 3571              		.thumb_func
 3572              		.type	MPU6050_setSlaveDataLength, %function
 3573              	MPU6050_setSlaveDataLength:
 3574              	.LFB75:
1056:mpu6050.c     **** /** Set number of bytes to read for the specified slave (0-3).
1057:mpu6050.c     ****  * @param num Slave number (0-3)
1058:mpu6050.c     ****  * @param length Number of bytes to read for specified slave
1059:mpu6050.c     ****  * @see getSlaveDataLength()
1060:mpu6050.c     ****  * @see MPU6050_RA_I2C_SLV0_CTRL
1061:mpu6050.c     ****  */
1062:mpu6050.c     **** void MPU6050_setSlaveDataLength(uint8_t num, uint8_t length) {
 3575              		.loc 1 1062 0
 3576              		.cfi_startproc
 3577              		@ args = 0, pretend = 0, frame = 8
 3578              		@ frame_needed = 1, uses_anonymous_args = 0
 3579 0000 80B5     		push	{r7, lr}
 3580              		.cfi_def_cfa_offset 8
 3581              		.cfi_offset 7, -8
 3582              		.cfi_offset 14, -4
 3583 0002 84B0     		sub	sp, sp, #16
 3584              		.cfi_def_cfa_offset 24
 3585 0004 02AF     		add	r7, sp, #8
 3586              		.cfi_def_cfa 7, 16
 3587 0006 0346     		mov	r3, r0
 3588 0008 0A46     		mov	r2, r1
 3589 000a FB71     		strb	r3, [r7, #7]
 3590 000c 1346     		mov	r3, r2
 3591 000e BB71     		strb	r3, [r7, #6]
1063:mpu6050.c     ****     if (num > 3) return;
 3592              		.loc 1 1063 0
 3593 0010 FB79     		ldrb	r3, [r7, #7]	@ zero_extendqisi2
 3594 0012 032B     		cmp	r3, #3
 3595 0014 00D9     		bls	.L279
 3596 0016 10E0     		b	.L278
 3597              	.L279:
1064:mpu6050.c     ****     I2CWriteBits(devAddr, MPU6050_RA_I2C_SLV0_CTRL + num*3, I2C_MPU6050_I2C_SLV_LEN_BIT, I2C_MPU605
 3598              		.loc 1 1064 0
 3599 0018 094B     		ldr	r3, .L281
 3600 001a 1978     		ldrb	r1, [r3]	@ zero_extendqisi2
 3601 001c FB79     		ldrb	r3, [r7, #7]
 3602 001e 1A46     		mov	r2, r3
 3603 0020 5200     		lsls	r2, r2, #1
 3604 0022 1344     		add	r3, r3, r2
 3605 0024 DBB2     		uxtb	r3, r3
 3606 0026 2733     		adds	r3, r3, #39
 3607 0028 DAB2     		uxtb	r2, r3
 3608 002a BB79     		ldrb	r3, [r7, #6]	@ zero_extendqisi2
 3609 002c 0093     		str	r3, [sp]
 3610 002e 0846     		mov	r0, r1
ARM GAS  C:\Users\jwgutter\AppData\Local\Temp\ccGcOqDB.s 			page 83


 3611 0030 1146     		mov	r1, r2
 3612 0032 0322     		movs	r2, #3
 3613 0034 0423     		movs	r3, #4
 3614 0036 FFF7FEFF 		bl	I2CWriteBits
 3615              	.L278:
1065:mpu6050.c     **** }
 3616              		.loc 1 1065 0
 3617 003a 0837     		adds	r7, r7, #8
 3618              		.cfi_def_cfa_offset 8
 3619 003c BD46     		mov	sp, r7
 3620              		.cfi_def_cfa_register 13
 3621              		@ sp needed
 3622 003e 80BD     		pop	{r7, pc}
 3623              	.L282:
 3624              		.align	2
 3625              	.L281:
 3626 0040 00000000 		.word	devAddr
 3627              		.cfi_endproc
 3628              	.LFE75:
 3629              		.size	MPU6050_setSlaveDataLength, .-MPU6050_setSlaveDataLength
 3630              		.section	.text.MPU6050_getSlave4Address,"ax",%progbits
 3631              		.align	2
 3632              		.global	MPU6050_getSlave4Address
 3633              		.thumb
 3634              		.thumb_func
 3635              		.type	MPU6050_getSlave4Address, %function
 3636              	MPU6050_getSlave4Address:
 3637              	.LFB76:
1066:mpu6050.c     **** 
1067:mpu6050.c     **** // I2C_SLV* registers (Slave 4)
1068:mpu6050.c     **** 
1069:mpu6050.c     **** /** Get the I2C address of Slave 4.
1070:mpu6050.c     ****  * Note that Bit 7 (MSB) controls read/write mode. If Bit 7 is set, it's a read
1071:mpu6050.c     ****  * operation, and if it is cleared, then it's a write operation. The remaining
1072:mpu6050.c     ****  * bits (6-0) are the 7-bit device address of the slave device.
1073:mpu6050.c     ****  *
1074:mpu6050.c     ****  * @return Current address for Slave 4
1075:mpu6050.c     ****  * @see getSlaveAddress()
1076:mpu6050.c     ****  * @see MPU6050_RA_I2C_SLV4_ADDR
1077:mpu6050.c     ****  */
1078:mpu6050.c     **** uint8_t MPU6050_getSlave4Address() {
 3638              		.loc 1 1078 0
 3639              		.cfi_startproc
 3640              		@ args = 0, pretend = 0, frame = 0
 3641              		@ frame_needed = 1, uses_anonymous_args = 0
 3642 0000 80B5     		push	{r7, lr}
 3643              		.cfi_def_cfa_offset 8
 3644              		.cfi_offset 7, -8
 3645              		.cfi_offset 14, -4
 3646 0002 00AF     		add	r7, sp, #0
 3647              		.cfi_def_cfa_register 7
1079:mpu6050.c     ****     I2CReadByte(devAddr, MPU6050_RA_I2C_SLV4_ADDR, buffer);
 3648              		.loc 1 1079 0
 3649 0004 054B     		ldr	r3, .L285
 3650 0006 1B78     		ldrb	r3, [r3]	@ zero_extendqisi2
 3651 0008 1846     		mov	r0, r3
 3652 000a 3121     		movs	r1, #49
ARM GAS  C:\Users\jwgutter\AppData\Local\Temp\ccGcOqDB.s 			page 84


 3653 000c 044A     		ldr	r2, .L285+4
 3654 000e FFF7FEFF 		bl	I2CReadByte
1080:mpu6050.c     ****     return buffer[0];
 3655              		.loc 1 1080 0
 3656 0012 034B     		ldr	r3, .L285+4
 3657 0014 1B78     		ldrb	r3, [r3]	@ zero_extendqisi2
1081:mpu6050.c     **** }
 3658              		.loc 1 1081 0
 3659 0016 1846     		mov	r0, r3
 3660 0018 80BD     		pop	{r7, pc}
 3661              	.L286:
 3662 001a 00BF     		.align	2
 3663              	.L285:
 3664 001c 00000000 		.word	devAddr
 3665 0020 00000000 		.word	buffer
 3666              		.cfi_endproc
 3667              	.LFE76:
 3668              		.size	MPU6050_getSlave4Address, .-MPU6050_getSlave4Address
 3669              		.section	.text.MPU6050_setSlave4Address,"ax",%progbits
 3670              		.align	2
 3671              		.global	MPU6050_setSlave4Address
 3672              		.thumb
 3673              		.thumb_func
 3674              		.type	MPU6050_setSlave4Address, %function
 3675              	MPU6050_setSlave4Address:
 3676              	.LFB77:
1082:mpu6050.c     **** /** Set the I2C address of Slave 4.
1083:mpu6050.c     ****  * @param address New address for Slave 4
1084:mpu6050.c     ****  * @see getSlave4Address()
1085:mpu6050.c     ****  * @see MPU6050_RA_I2C_SLV4_ADDR
1086:mpu6050.c     ****  */
1087:mpu6050.c     **** void MPU6050_setSlave4Address(uint8_t address) {
 3677              		.loc 1 1087 0
 3678              		.cfi_startproc
 3679              		@ args = 0, pretend = 0, frame = 8
 3680              		@ frame_needed = 1, uses_anonymous_args = 0
 3681 0000 80B5     		push	{r7, lr}
 3682              		.cfi_def_cfa_offset 8
 3683              		.cfi_offset 7, -8
 3684              		.cfi_offset 14, -4
 3685 0002 82B0     		sub	sp, sp, #8
 3686              		.cfi_def_cfa_offset 16
 3687 0004 00AF     		add	r7, sp, #0
 3688              		.cfi_def_cfa_register 7
 3689 0006 0346     		mov	r3, r0
 3690 0008 FB71     		strb	r3, [r7, #7]
1088:mpu6050.c     ****     I2CWriteByte(devAddr, MPU6050_RA_I2C_SLV4_ADDR, address);
 3691              		.loc 1 1088 0
 3692 000a 054B     		ldr	r3, .L288
 3693 000c 1A78     		ldrb	r2, [r3]	@ zero_extendqisi2
 3694 000e FB79     		ldrb	r3, [r7, #7]	@ zero_extendqisi2
 3695 0010 1046     		mov	r0, r2
 3696 0012 3121     		movs	r1, #49
 3697 0014 1A46     		mov	r2, r3
 3698 0016 FFF7FEFF 		bl	I2CWriteByte
1089:mpu6050.c     **** }
 3699              		.loc 1 1089 0
ARM GAS  C:\Users\jwgutter\AppData\Local\Temp\ccGcOqDB.s 			page 85


 3700 001a 0837     		adds	r7, r7, #8
 3701              		.cfi_def_cfa_offset 8
 3702 001c BD46     		mov	sp, r7
 3703              		.cfi_def_cfa_register 13
 3704              		@ sp needed
 3705 001e 80BD     		pop	{r7, pc}
 3706              	.L289:
 3707              		.align	2
 3708              	.L288:
 3709 0020 00000000 		.word	devAddr
 3710              		.cfi_endproc
 3711              	.LFE77:
 3712              		.size	MPU6050_setSlave4Address, .-MPU6050_setSlave4Address
 3713              		.section	.text.MPU6050_getSlave4Register,"ax",%progbits
 3714              		.align	2
 3715              		.global	MPU6050_getSlave4Register
 3716              		.thumb
 3717              		.thumb_func
 3718              		.type	MPU6050_getSlave4Register, %function
 3719              	MPU6050_getSlave4Register:
 3720              	.LFB78:
1090:mpu6050.c     **** /** Get the active internal register for the Slave 4.
1091:mpu6050.c     ****  * Read/write operations for this slave will be done to whatever internal
1092:mpu6050.c     ****  * register address is stored in this MPU register.
1093:mpu6050.c     ****  *
1094:mpu6050.c     ****  * @return Current active register for Slave 4
1095:mpu6050.c     ****  * @see MPU6050_RA_I2C_SLV4_REG
1096:mpu6050.c     ****  */
1097:mpu6050.c     **** uint8_t MPU6050_getSlave4Register() {
 3721              		.loc 1 1097 0
 3722              		.cfi_startproc
 3723              		@ args = 0, pretend = 0, frame = 0
 3724              		@ frame_needed = 1, uses_anonymous_args = 0
 3725 0000 80B5     		push	{r7, lr}
 3726              		.cfi_def_cfa_offset 8
 3727              		.cfi_offset 7, -8
 3728              		.cfi_offset 14, -4
 3729 0002 00AF     		add	r7, sp, #0
 3730              		.cfi_def_cfa_register 7
1098:mpu6050.c     ****     I2CReadByte(devAddr, MPU6050_RA_I2C_SLV4_REG, buffer);
 3731              		.loc 1 1098 0
 3732 0004 054B     		ldr	r3, .L292
 3733 0006 1B78     		ldrb	r3, [r3]	@ zero_extendqisi2
 3734 0008 1846     		mov	r0, r3
 3735 000a 3221     		movs	r1, #50
 3736 000c 044A     		ldr	r2, .L292+4
 3737 000e FFF7FEFF 		bl	I2CReadByte
1099:mpu6050.c     ****     return buffer[0];
 3738              		.loc 1 1099 0
 3739 0012 034B     		ldr	r3, .L292+4
 3740 0014 1B78     		ldrb	r3, [r3]	@ zero_extendqisi2
1100:mpu6050.c     **** }
 3741              		.loc 1 1100 0
 3742 0016 1846     		mov	r0, r3
 3743 0018 80BD     		pop	{r7, pc}
 3744              	.L293:
 3745 001a 00BF     		.align	2
ARM GAS  C:\Users\jwgutter\AppData\Local\Temp\ccGcOqDB.s 			page 86


 3746              	.L292:
 3747 001c 00000000 		.word	devAddr
 3748 0020 00000000 		.word	buffer
 3749              		.cfi_endproc
 3750              	.LFE78:
 3751              		.size	MPU6050_getSlave4Register, .-MPU6050_getSlave4Register
 3752              		.section	.text.MPU6050_setSlave4Register,"ax",%progbits
 3753              		.align	2
 3754              		.global	MPU6050_setSlave4Register
 3755              		.thumb
 3756              		.thumb_func
 3757              		.type	MPU6050_setSlave4Register, %function
 3758              	MPU6050_setSlave4Register:
 3759              	.LFB79:
1101:mpu6050.c     **** /** Set the active internal register for Slave 4.
1102:mpu6050.c     ****  * @param reg New active register for Slave 4
1103:mpu6050.c     ****  * @see getSlave4Register()
1104:mpu6050.c     ****  * @see MPU6050_RA_I2C_SLV4_REG
1105:mpu6050.c     ****  */
1106:mpu6050.c     **** void MPU6050_setSlave4Register(uint8_t reg) {
 3760              		.loc 1 1106 0
 3761              		.cfi_startproc
 3762              		@ args = 0, pretend = 0, frame = 8
 3763              		@ frame_needed = 1, uses_anonymous_args = 0
 3764 0000 80B5     		push	{r7, lr}
 3765              		.cfi_def_cfa_offset 8
 3766              		.cfi_offset 7, -8
 3767              		.cfi_offset 14, -4
 3768 0002 82B0     		sub	sp, sp, #8
 3769              		.cfi_def_cfa_offset 16
 3770 0004 00AF     		add	r7, sp, #0
 3771              		.cfi_def_cfa_register 7
 3772 0006 0346     		mov	r3, r0
 3773 0008 FB71     		strb	r3, [r7, #7]
1107:mpu6050.c     ****     I2CWriteByte(devAddr, MPU6050_RA_I2C_SLV4_REG, reg);
 3774              		.loc 1 1107 0
 3775 000a 054B     		ldr	r3, .L295
 3776 000c 1A78     		ldrb	r2, [r3]	@ zero_extendqisi2
 3777 000e FB79     		ldrb	r3, [r7, #7]	@ zero_extendqisi2
 3778 0010 1046     		mov	r0, r2
 3779 0012 3221     		movs	r1, #50
 3780 0014 1A46     		mov	r2, r3
 3781 0016 FFF7FEFF 		bl	I2CWriteByte
1108:mpu6050.c     **** }
 3782              		.loc 1 1108 0
 3783 001a 0837     		adds	r7, r7, #8
 3784              		.cfi_def_cfa_offset 8
 3785 001c BD46     		mov	sp, r7
 3786              		.cfi_def_cfa_register 13
 3787              		@ sp needed
 3788 001e 80BD     		pop	{r7, pc}
 3789              	.L296:
 3790              		.align	2
 3791              	.L295:
 3792 0020 00000000 		.word	devAddr
 3793              		.cfi_endproc
 3794              	.LFE79:
ARM GAS  C:\Users\jwgutter\AppData\Local\Temp\ccGcOqDB.s 			page 87


 3795              		.size	MPU6050_setSlave4Register, .-MPU6050_setSlave4Register
 3796              		.section	.text.MPU6050_setSlave4OutputByte,"ax",%progbits
 3797              		.align	2
 3798              		.global	MPU6050_setSlave4OutputByte
 3799              		.thumb
 3800              		.thumb_func
 3801              		.type	MPU6050_setSlave4OutputByte, %function
 3802              	MPU6050_setSlave4OutputByte:
 3803              	.LFB80:
1109:mpu6050.c     **** /** Set new byte to write to Slave 4.
1110:mpu6050.c     ****  * This register stores the data to be written into the Slave 4. If I2C_SLV4_RW
1111:mpu6050.c     ****  * is set 1 (set to read), this register has no effect.
1112:mpu6050.c     ****  * @param data New byte to write to Slave 4
1113:mpu6050.c     ****  * @see MPU6050_RA_I2C_SLV4_DO
1114:mpu6050.c     ****  */
1115:mpu6050.c     **** void MPU6050_setSlave4OutputByte(uint8_t data) {
 3804              		.loc 1 1115 0
 3805              		.cfi_startproc
 3806              		@ args = 0, pretend = 0, frame = 8
 3807              		@ frame_needed = 1, uses_anonymous_args = 0
 3808 0000 80B5     		push	{r7, lr}
 3809              		.cfi_def_cfa_offset 8
 3810              		.cfi_offset 7, -8
 3811              		.cfi_offset 14, -4
 3812 0002 82B0     		sub	sp, sp, #8
 3813              		.cfi_def_cfa_offset 16
 3814 0004 00AF     		add	r7, sp, #0
 3815              		.cfi_def_cfa_register 7
 3816 0006 0346     		mov	r3, r0
 3817 0008 FB71     		strb	r3, [r7, #7]
1116:mpu6050.c     ****     I2CWriteByte(devAddr, MPU6050_RA_I2C_SLV4_DO, data);
 3818              		.loc 1 1116 0
 3819 000a 054B     		ldr	r3, .L298
 3820 000c 1A78     		ldrb	r2, [r3]	@ zero_extendqisi2
 3821 000e FB79     		ldrb	r3, [r7, #7]	@ zero_extendqisi2
 3822 0010 1046     		mov	r0, r2
 3823 0012 3321     		movs	r1, #51
 3824 0014 1A46     		mov	r2, r3
 3825 0016 FFF7FEFF 		bl	I2CWriteByte
1117:mpu6050.c     **** }
 3826              		.loc 1 1117 0
 3827 001a 0837     		adds	r7, r7, #8
 3828              		.cfi_def_cfa_offset 8
 3829 001c BD46     		mov	sp, r7
 3830              		.cfi_def_cfa_register 13
 3831              		@ sp needed
 3832 001e 80BD     		pop	{r7, pc}
 3833              	.L299:
 3834              		.align	2
 3835              	.L298:
 3836 0020 00000000 		.word	devAddr
 3837              		.cfi_endproc
 3838              	.LFE80:
 3839              		.size	MPU6050_setSlave4OutputByte, .-MPU6050_setSlave4OutputByte
 3840              		.section	.text.MPU6050_getSlave4Enabled,"ax",%progbits
 3841              		.align	2
 3842              		.global	MPU6050_getSlave4Enabled
ARM GAS  C:\Users\jwgutter\AppData\Local\Temp\ccGcOqDB.s 			page 88


 3843              		.thumb
 3844              		.thumb_func
 3845              		.type	MPU6050_getSlave4Enabled, %function
 3846              	MPU6050_getSlave4Enabled:
 3847              	.LFB81:
1118:mpu6050.c     **** /** Get the enabled value for the Slave 4.
1119:mpu6050.c     ****  * When set to 1, this bit enables Slave 4 for data transfer operations. When
1120:mpu6050.c     ****  * cleared to 0, this bit disables Slave 4 from data transfer operations.
1121:mpu6050.c     ****  * @return Current enabled value for Slave 4
1122:mpu6050.c     ****  * @see MPU6050_RA_I2C_SLV4_CTRL
1123:mpu6050.c     ****  */
1124:mpu6050.c     **** bool MPU6050_getSlave4Enabled() {
 3848              		.loc 1 1124 0
 3849              		.cfi_startproc
 3850              		@ args = 0, pretend = 0, frame = 0
 3851              		@ frame_needed = 1, uses_anonymous_args = 0
 3852 0000 80B5     		push	{r7, lr}
 3853              		.cfi_def_cfa_offset 8
 3854              		.cfi_offset 7, -8
 3855              		.cfi_offset 14, -4
 3856 0002 00AF     		add	r7, sp, #0
 3857              		.cfi_def_cfa_register 7
1125:mpu6050.c     ****     I2CReadBit(devAddr, MPU6050_RA_I2C_SLV4_CTRL, I2C_MPU6050_I2C_SLV4_EN_BIT, buffer);
 3858              		.loc 1 1125 0
 3859 0004 084B     		ldr	r3, .L302
 3860 0006 1B78     		ldrb	r3, [r3]	@ zero_extendqisi2
 3861 0008 1846     		mov	r0, r3
 3862 000a 3421     		movs	r1, #52
 3863 000c 0722     		movs	r2, #7
 3864 000e 074B     		ldr	r3, .L302+4
 3865 0010 FFF7FEFF 		bl	I2CReadBit
1126:mpu6050.c     ****     return buffer[0];
 3866              		.loc 1 1126 0
 3867 0014 054B     		ldr	r3, .L302+4
 3868 0016 1B78     		ldrb	r3, [r3]	@ zero_extendqisi2
 3869 0018 002B     		cmp	r3, #0
 3870 001a 14BF     		ite	ne
 3871 001c 0123     		movne	r3, #1
 3872 001e 0023     		moveq	r3, #0
 3873 0020 DBB2     		uxtb	r3, r3
1127:mpu6050.c     **** }
 3874              		.loc 1 1127 0
 3875 0022 1846     		mov	r0, r3
 3876 0024 80BD     		pop	{r7, pc}
 3877              	.L303:
 3878 0026 00BF     		.align	2
 3879              	.L302:
 3880 0028 00000000 		.word	devAddr
 3881 002c 00000000 		.word	buffer
 3882              		.cfi_endproc
 3883              	.LFE81:
 3884              		.size	MPU6050_getSlave4Enabled, .-MPU6050_getSlave4Enabled
 3885              		.section	.text.MPU6050_setSlave4Enabled,"ax",%progbits
 3886              		.align	2
 3887              		.global	MPU6050_setSlave4Enabled
 3888              		.thumb
 3889              		.thumb_func
ARM GAS  C:\Users\jwgutter\AppData\Local\Temp\ccGcOqDB.s 			page 89


 3890              		.type	MPU6050_setSlave4Enabled, %function
 3891              	MPU6050_setSlave4Enabled:
 3892              	.LFB82:
1128:mpu6050.c     **** /** Set the enabled value for Slave 4.
1129:mpu6050.c     ****  * @param enabled New enabled value for Slave 4
1130:mpu6050.c     ****  * @see getSlave4Enabled()
1131:mpu6050.c     ****  * @see MPU6050_RA_I2C_SLV4_CTRL
1132:mpu6050.c     ****  */
1133:mpu6050.c     **** void MPU6050_setSlave4Enabled(bool enabled) {
 3893              		.loc 1 1133 0
 3894              		.cfi_startproc
 3895              		@ args = 0, pretend = 0, frame = 8
 3896              		@ frame_needed = 1, uses_anonymous_args = 0
 3897 0000 80B5     		push	{r7, lr}
 3898              		.cfi_def_cfa_offset 8
 3899              		.cfi_offset 7, -8
 3900              		.cfi_offset 14, -4
 3901 0002 82B0     		sub	sp, sp, #8
 3902              		.cfi_def_cfa_offset 16
 3903 0004 00AF     		add	r7, sp, #0
 3904              		.cfi_def_cfa_register 7
 3905 0006 0346     		mov	r3, r0
 3906 0008 FB71     		strb	r3, [r7, #7]
1134:mpu6050.c     ****     I2CWriteBit(devAddr, MPU6050_RA_I2C_SLV4_CTRL, I2C_MPU6050_I2C_SLV4_EN_BIT, enabled);
 3907              		.loc 1 1134 0
 3908 000a 054B     		ldr	r3, .L305
 3909 000c 1A78     		ldrb	r2, [r3]	@ zero_extendqisi2
 3910 000e FB79     		ldrb	r3, [r7, #7]	@ zero_extendqisi2
 3911 0010 1046     		mov	r0, r2
 3912 0012 3421     		movs	r1, #52
 3913 0014 0722     		movs	r2, #7
 3914 0016 FFF7FEFF 		bl	I2CWriteBit
1135:mpu6050.c     **** }
 3915              		.loc 1 1135 0
 3916 001a 0837     		adds	r7, r7, #8
 3917              		.cfi_def_cfa_offset 8
 3918 001c BD46     		mov	sp, r7
 3919              		.cfi_def_cfa_register 13
 3920              		@ sp needed
 3921 001e 80BD     		pop	{r7, pc}
 3922              	.L306:
 3923              		.align	2
 3924              	.L305:
 3925 0020 00000000 		.word	devAddr
 3926              		.cfi_endproc
 3927              	.LFE82:
 3928              		.size	MPU6050_setSlave4Enabled, .-MPU6050_setSlave4Enabled
 3929              		.section	.text.MPU6050_getSlave4InterruptEnabled,"ax",%progbits
 3930              		.align	2
 3931              		.global	MPU6050_getSlave4InterruptEnabled
 3932              		.thumb
 3933              		.thumb_func
 3934              		.type	MPU6050_getSlave4InterruptEnabled, %function
 3935              	MPU6050_getSlave4InterruptEnabled:
 3936              	.LFB83:
1136:mpu6050.c     **** /** Get the enabled value for Slave 4 transaction interrupts.
1137:mpu6050.c     ****  * When set to 1, this bit enables the generation of an interrupt signal upon
ARM GAS  C:\Users\jwgutter\AppData\Local\Temp\ccGcOqDB.s 			page 90


1138:mpu6050.c     ****  * completion of a Slave 4 transaction. When cleared to 0, this bit disables the
1139:mpu6050.c     ****  * generation of an interrupt signal upon completion of a Slave 4 transaction.
1140:mpu6050.c     ****  * The interrupt status can be observed in Register 54.
1141:mpu6050.c     ****  *
1142:mpu6050.c     ****  * @return Current enabled value for Slave 4 transaction interrupts.
1143:mpu6050.c     ****  * @see MPU6050_RA_I2C_SLV4_CTRL
1144:mpu6050.c     ****  */
1145:mpu6050.c     **** bool MPU6050_getSlave4InterruptEnabled() {
 3937              		.loc 1 1145 0
 3938              		.cfi_startproc
 3939              		@ args = 0, pretend = 0, frame = 0
 3940              		@ frame_needed = 1, uses_anonymous_args = 0
 3941 0000 80B5     		push	{r7, lr}
 3942              		.cfi_def_cfa_offset 8
 3943              		.cfi_offset 7, -8
 3944              		.cfi_offset 14, -4
 3945 0002 00AF     		add	r7, sp, #0
 3946              		.cfi_def_cfa_register 7
1146:mpu6050.c     ****     I2CReadBit(devAddr, MPU6050_RA_I2C_SLV4_CTRL, I2C_MPU6050_I2C_SLV4_INT_EN_BIT, buffer);
 3947              		.loc 1 1146 0
 3948 0004 084B     		ldr	r3, .L309
 3949 0006 1B78     		ldrb	r3, [r3]	@ zero_extendqisi2
 3950 0008 1846     		mov	r0, r3
 3951 000a 3421     		movs	r1, #52
 3952 000c 0622     		movs	r2, #6
 3953 000e 074B     		ldr	r3, .L309+4
 3954 0010 FFF7FEFF 		bl	I2CReadBit
1147:mpu6050.c     ****     return buffer[0];
 3955              		.loc 1 1147 0
 3956 0014 054B     		ldr	r3, .L309+4
 3957 0016 1B78     		ldrb	r3, [r3]	@ zero_extendqisi2
 3958 0018 002B     		cmp	r3, #0
 3959 001a 14BF     		ite	ne
 3960 001c 0123     		movne	r3, #1
 3961 001e 0023     		moveq	r3, #0
 3962 0020 DBB2     		uxtb	r3, r3
1148:mpu6050.c     **** }
 3963              		.loc 1 1148 0
 3964 0022 1846     		mov	r0, r3
 3965 0024 80BD     		pop	{r7, pc}
 3966              	.L310:
 3967 0026 00BF     		.align	2
 3968              	.L309:
 3969 0028 00000000 		.word	devAddr
 3970 002c 00000000 		.word	buffer
 3971              		.cfi_endproc
 3972              	.LFE83:
 3973              		.size	MPU6050_getSlave4InterruptEnabled, .-MPU6050_getSlave4InterruptEnabled
 3974              		.section	.text.MPU6050_setSlave4InterruptEnabled,"ax",%progbits
 3975              		.align	2
 3976              		.global	MPU6050_setSlave4InterruptEnabled
 3977              		.thumb
 3978              		.thumb_func
 3979              		.type	MPU6050_setSlave4InterruptEnabled, %function
 3980              	MPU6050_setSlave4InterruptEnabled:
 3981              	.LFB84:
1149:mpu6050.c     **** /** Set the enabled value for Slave 4 transaction interrupts.
ARM GAS  C:\Users\jwgutter\AppData\Local\Temp\ccGcOqDB.s 			page 91


1150:mpu6050.c     ****  * @param enabled New enabled value for Slave 4 transaction interrupts.
1151:mpu6050.c     ****  * @see getSlave4InterruptEnabled()
1152:mpu6050.c     ****  * @see MPU6050_RA_I2C_SLV4_CTRL
1153:mpu6050.c     ****  */
1154:mpu6050.c     **** void MPU6050_setSlave4InterruptEnabled(bool enabled) {
 3982              		.loc 1 1154 0
 3983              		.cfi_startproc
 3984              		@ args = 0, pretend = 0, frame = 8
 3985              		@ frame_needed = 1, uses_anonymous_args = 0
 3986 0000 80B5     		push	{r7, lr}
 3987              		.cfi_def_cfa_offset 8
 3988              		.cfi_offset 7, -8
 3989              		.cfi_offset 14, -4
 3990 0002 82B0     		sub	sp, sp, #8
 3991              		.cfi_def_cfa_offset 16
 3992 0004 00AF     		add	r7, sp, #0
 3993              		.cfi_def_cfa_register 7
 3994 0006 0346     		mov	r3, r0
 3995 0008 FB71     		strb	r3, [r7, #7]
1155:mpu6050.c     ****     I2CWriteBit(devAddr, MPU6050_RA_I2C_SLV4_CTRL, I2C_MPU6050_I2C_SLV4_INT_EN_BIT, enabled);
 3996              		.loc 1 1155 0
 3997 000a 054B     		ldr	r3, .L312
 3998 000c 1A78     		ldrb	r2, [r3]	@ zero_extendqisi2
 3999 000e FB79     		ldrb	r3, [r7, #7]	@ zero_extendqisi2
 4000 0010 1046     		mov	r0, r2
 4001 0012 3421     		movs	r1, #52
 4002 0014 0622     		movs	r2, #6
 4003 0016 FFF7FEFF 		bl	I2CWriteBit
1156:mpu6050.c     **** }
 4004              		.loc 1 1156 0
 4005 001a 0837     		adds	r7, r7, #8
 4006              		.cfi_def_cfa_offset 8
 4007 001c BD46     		mov	sp, r7
 4008              		.cfi_def_cfa_register 13
 4009              		@ sp needed
 4010 001e 80BD     		pop	{r7, pc}
 4011              	.L313:
 4012              		.align	2
 4013              	.L312:
 4014 0020 00000000 		.word	devAddr
 4015              		.cfi_endproc
 4016              	.LFE84:
 4017              		.size	MPU6050_setSlave4InterruptEnabled, .-MPU6050_setSlave4InterruptEnabled
 4018              		.section	.text.MPU6050_getSlave4WriteMode,"ax",%progbits
 4019              		.align	2
 4020              		.global	MPU6050_getSlave4WriteMode
 4021              		.thumb
 4022              		.thumb_func
 4023              		.type	MPU6050_getSlave4WriteMode, %function
 4024              	MPU6050_getSlave4WriteMode:
 4025              	.LFB85:
1157:mpu6050.c     **** /** Get write mode for Slave 4.
1158:mpu6050.c     ****  * When set to 1, the transaction will read or write data only. When cleared to
1159:mpu6050.c     ****  * 0, the transaction will write a register address prior to reading or writing
1160:mpu6050.c     ****  * data. This should equal 0 when specifying the register address within the
1161:mpu6050.c     ****  * Slave device to/from which the ensuing data transaction will take place.
1162:mpu6050.c     ****  *
ARM GAS  C:\Users\jwgutter\AppData\Local\Temp\ccGcOqDB.s 			page 92


1163:mpu6050.c     ****  * @return Current write mode for Slave 4 (0 = register address + data, 1 = data only)
1164:mpu6050.c     ****  * @see MPU6050_RA_I2C_SLV4_CTRL
1165:mpu6050.c     ****  */
1166:mpu6050.c     **** bool MPU6050_getSlave4WriteMode() {
 4026              		.loc 1 1166 0
 4027              		.cfi_startproc
 4028              		@ args = 0, pretend = 0, frame = 0
 4029              		@ frame_needed = 1, uses_anonymous_args = 0
 4030 0000 80B5     		push	{r7, lr}
 4031              		.cfi_def_cfa_offset 8
 4032              		.cfi_offset 7, -8
 4033              		.cfi_offset 14, -4
 4034 0002 00AF     		add	r7, sp, #0
 4035              		.cfi_def_cfa_register 7
1167:mpu6050.c     ****     I2CReadBit(devAddr, MPU6050_RA_I2C_SLV4_CTRL, I2C_MPU6050_I2C_SLV4_REG_DIS_BIT, buffer);
 4036              		.loc 1 1167 0
 4037 0004 084B     		ldr	r3, .L316
 4038 0006 1B78     		ldrb	r3, [r3]	@ zero_extendqisi2
 4039 0008 1846     		mov	r0, r3
 4040 000a 3421     		movs	r1, #52
 4041 000c 0522     		movs	r2, #5
 4042 000e 074B     		ldr	r3, .L316+4
 4043 0010 FFF7FEFF 		bl	I2CReadBit
1168:mpu6050.c     ****     return buffer[0];
 4044              		.loc 1 1168 0
 4045 0014 054B     		ldr	r3, .L316+4
 4046 0016 1B78     		ldrb	r3, [r3]	@ zero_extendqisi2
 4047 0018 002B     		cmp	r3, #0
 4048 001a 14BF     		ite	ne
 4049 001c 0123     		movne	r3, #1
 4050 001e 0023     		moveq	r3, #0
 4051 0020 DBB2     		uxtb	r3, r3
1169:mpu6050.c     **** }
 4052              		.loc 1 1169 0
 4053 0022 1846     		mov	r0, r3
 4054 0024 80BD     		pop	{r7, pc}
 4055              	.L317:
 4056 0026 00BF     		.align	2
 4057              	.L316:
 4058 0028 00000000 		.word	devAddr
 4059 002c 00000000 		.word	buffer
 4060              		.cfi_endproc
 4061              	.LFE85:
 4062              		.size	MPU6050_getSlave4WriteMode, .-MPU6050_getSlave4WriteMode
 4063              		.section	.text.MPU6050_setSlave4WriteMode,"ax",%progbits
 4064              		.align	2
 4065              		.global	MPU6050_setSlave4WriteMode
 4066              		.thumb
 4067              		.thumb_func
 4068              		.type	MPU6050_setSlave4WriteMode, %function
 4069              	MPU6050_setSlave4WriteMode:
 4070              	.LFB86:
1170:mpu6050.c     **** /** Set write mode for the Slave 4.
1171:mpu6050.c     ****  * @param mode New write mode for Slave 4 (0 = register address + data, 1 = data only)
1172:mpu6050.c     ****  * @see getSlave4WriteMode()
1173:mpu6050.c     ****  * @see MPU6050_RA_I2C_SLV4_CTRL
1174:mpu6050.c     ****  */
ARM GAS  C:\Users\jwgutter\AppData\Local\Temp\ccGcOqDB.s 			page 93


1175:mpu6050.c     **** void MPU6050_setSlave4WriteMode(bool mode) {
 4071              		.loc 1 1175 0
 4072              		.cfi_startproc
 4073              		@ args = 0, pretend = 0, frame = 8
 4074              		@ frame_needed = 1, uses_anonymous_args = 0
 4075 0000 80B5     		push	{r7, lr}
 4076              		.cfi_def_cfa_offset 8
 4077              		.cfi_offset 7, -8
 4078              		.cfi_offset 14, -4
 4079 0002 82B0     		sub	sp, sp, #8
 4080              		.cfi_def_cfa_offset 16
 4081 0004 00AF     		add	r7, sp, #0
 4082              		.cfi_def_cfa_register 7
 4083 0006 0346     		mov	r3, r0
 4084 0008 FB71     		strb	r3, [r7, #7]
1176:mpu6050.c     ****     I2CWriteBit(devAddr, MPU6050_RA_I2C_SLV4_CTRL, I2C_MPU6050_I2C_SLV4_REG_DIS_BIT, mode);
 4085              		.loc 1 1176 0
 4086 000a 054B     		ldr	r3, .L319
 4087 000c 1A78     		ldrb	r2, [r3]	@ zero_extendqisi2
 4088 000e FB79     		ldrb	r3, [r7, #7]	@ zero_extendqisi2
 4089 0010 1046     		mov	r0, r2
 4090 0012 3421     		movs	r1, #52
 4091 0014 0522     		movs	r2, #5
 4092 0016 FFF7FEFF 		bl	I2CWriteBit
1177:mpu6050.c     **** }
 4093              		.loc 1 1177 0
 4094 001a 0837     		adds	r7, r7, #8
 4095              		.cfi_def_cfa_offset 8
 4096 001c BD46     		mov	sp, r7
 4097              		.cfi_def_cfa_register 13
 4098              		@ sp needed
 4099 001e 80BD     		pop	{r7, pc}
 4100              	.L320:
 4101              		.align	2
 4102              	.L319:
 4103 0020 00000000 		.word	devAddr
 4104              		.cfi_endproc
 4105              	.LFE86:
 4106              		.size	MPU6050_setSlave4WriteMode, .-MPU6050_setSlave4WriteMode
 4107              		.section	.text.MPU6050_getSlave4MasterDelay,"ax",%progbits
 4108              		.align	2
 4109              		.global	MPU6050_getSlave4MasterDelay
 4110              		.thumb
 4111              		.thumb_func
 4112              		.type	MPU6050_getSlave4MasterDelay, %function
 4113              	MPU6050_getSlave4MasterDelay:
 4114              	.LFB87:
1178:mpu6050.c     **** /** Get Slave 4 master delay value.
1179:mpu6050.c     ****  * This configures the reduced access rate of I2C slaves relative to the Sample
1180:mpu6050.c     ****  * Rate. When a slave's access rate is decreased relative to the Sample Rate,
1181:mpu6050.c     ****  * the slave is accessed every:
1182:mpu6050.c     ****  *
1183:mpu6050.c     ****  *     1 / (1 + I2C_MST_DLY) samples
1184:mpu6050.c     ****  *
1185:mpu6050.c     ****  * This base Sample Rate in turn is determined by SMPLRT_DIV (register 25) and
1186:mpu6050.c     ****  * DLPF_CFG (register 26). Whether a slave's access rate is reduced relative to
1187:mpu6050.c     ****  * the Sample Rate is determined by I2C_MST_DELAY_CTRL (register 103). For
ARM GAS  C:\Users\jwgutter\AppData\Local\Temp\ccGcOqDB.s 			page 94


1188:mpu6050.c     ****  * further information regarding the Sample Rate, please refer to register 25.
1189:mpu6050.c     ****  *
1190:mpu6050.c     ****  * @return Current Slave 4 master delay value
1191:mpu6050.c     ****  * @see MPU6050_RA_I2C_SLV4_CTRL
1192:mpu6050.c     ****  */
1193:mpu6050.c     **** uint8_t MPU6050_getSlave4MasterDelay() {
 4115              		.loc 1 1193 0
 4116              		.cfi_startproc
 4117              		@ args = 0, pretend = 0, frame = 0
 4118              		@ frame_needed = 1, uses_anonymous_args = 0
 4119 0000 80B5     		push	{r7, lr}
 4120              		.cfi_def_cfa_offset 8
 4121              		.cfi_offset 7, -8
 4122              		.cfi_offset 14, -4
 4123 0002 82B0     		sub	sp, sp, #8
 4124              		.cfi_def_cfa_offset 16
 4125 0004 02AF     		add	r7, sp, #8
 4126              		.cfi_def_cfa 7, 8
1194:mpu6050.c     ****     I2CReadBits(devAddr, MPU6050_RA_I2C_SLV4_CTRL, I2C_MPU6050_I2C_SLV4_MST_DLY_BIT, I2C_MPU6050_I2
 4127              		.loc 1 1194 0
 4128 0006 074B     		ldr	r3, .L323
 4129 0008 1A78     		ldrb	r2, [r3]	@ zero_extendqisi2
 4130 000a 074B     		ldr	r3, .L323+4
 4131 000c 0093     		str	r3, [sp]
 4132 000e 1046     		mov	r0, r2
